
broadcast_receive.exe:     file format elf32-msp430


Disassembly of section .text:

00008000 <__watchdog_support>:
    8000:	55 42 5c 01 	mov.b	&0x015c,r5	
    8004:	35 d0 08 5a 	bis	#23048,	r5	;#0x5a08
    8008:	82 45 12 21 	mov	r5,	&0x2112	

0000800c <__init_stack>:
    800c:	31 40 fe 2b 	mov	#11262,	r1	;#0x2bfe

00008010 <__do_copy_data>:
    8010:	3f 40 4c 00 	mov	#76,	r15	;#0x004c
    8014:	0f 93       	tst	r15		
    8016:	08 24       	jz	$+18     	;abs 0x8028
    8018:	92 42 12 21 	mov	&0x2112,&0x015c	
    801c:	5c 01 
    801e:	2f 83       	decd	r15		
    8020:	9f 4f 12 ae 	mov	-20974(r15),7168(r15);0xae12(r15), 0x1c00(r15)
    8024:	00 1c 
    8026:	f8 23       	jnz	$-14     	;abs 0x8018

00008028 <__do_clear_bss>:
    8028:	3f 40 c6 04 	mov	#1222,	r15	;#0x04c6
    802c:	0f 93       	tst	r15		
    802e:	07 24       	jz	$+16     	;abs 0x803e
    8030:	92 42 12 21 	mov	&0x2112,&0x015c	
    8034:	5c 01 
    8036:	1f 83       	dec	r15		
    8038:	cf 43 4c 1c 	mov.b	#0,	7244(r15);r3 As==00, 0x1c4c(r15)
    803c:	f9 23       	jnz	$-12     	;abs 0x8030

0000803e <main>:
    803e:	b2 40 ac 5a 	mov	#23212,	&0x015c	;#0x5aac
    8042:	5c 01 
    8044:	d2 43 04 02 	mov.b	#1,	&0x0204	;r3 As==01
    8048:	f2 43 04 02 	mov.b	#-1,	&0x0204	;r3 As==11
    804c:	c2 43 02 02 	mov.b	#0,	&0x0202	;r3 As==00
    8050:	f2 43 24 02 	mov.b	#-1,	&0x0224	;r3 As==11
    8054:	c2 43 22 02 	mov.b	#0,	&0x0222	;r3 As==00
    8058:	b2 40 ff 00 	mov	#255,	&0x0324	;#0x00ff
    805c:	24 03 
    805e:	82 43 22 03 	mov	#0,	&0x0322	;r3 As==00
    8062:	f2 d0 80 ff 	bis.b	#-128,	&0x0202	;#0xff80
    8066:	02 02 
    8068:	f2 f0 bf ff 	and.b	#-65,	&0x0204	;#0xffbf
    806c:	04 02 
    806e:	f2 f0 bf ff 	and.b	#-65,	&0x0218	;#0xffbf
    8072:	18 02 
    8074:	f2 d0 40 00 	bis.b	#64,	&0x0206	;#0x0040
    8078:	06 02 
    807a:	f2 f0 bf ff 	and.b	#-65,	&0x0202	;#0xffbf
    807e:	02 02 
    8080:	f2 f0 bf ff 	and.b	#-65,	&0x021c	;#0xffbf
    8084:	1c 02 
    8086:	f2 d0 40 00 	bis.b	#64,	&0x021a	;#0x0040
    808a:	1a 02 
    808c:	b0 12 74 8d 	call	#0x8d74	
    8090:	b0 12 f2 97 	call	#0x97f2	
    8094:	b0 12 a0 9c 	call	#0x9ca0	
    8098:	5f 43       	mov.b	#1,	r15	;r3 As==01
    809a:	b0 12 40 9d 	call	#0x9d40	
    809e:	3f 40 44 8a 	mov	#-30140,r15	;#0x8a44
    80a2:	b0 12 90 9c 	call	#0x9c90	
    80a6:	b0 12 50 8c 	call	#0x8c50	
    80aa:	b0 12 9c 93 	call	#0x939c	
    80ae:	30 12 0c 00 	push	#12		;#0x000c
    80b2:	30 12 45 ad 	push	#-21179	;#0xad45
    80b6:	b0 12 36 a0 	call	#0xa036	
    80ba:	21 52       	add	#4,	r1	;r2 As==10
    80bc:	b0 12 22 84 	call	#0x8422	
    80c0:	0e 43       	clr	r14		
    80c2:	3f 40 00 1c 	mov	#7168,	r15	;#0x1c00
    80c6:	b0 12 42 85 	call	#0x8542	
    80ca:	1f 42 50 03 	mov	&0x0350,r15	
    80ce:	0e 4f       	mov	r15,	r14	
    80d0:	5e 06       	rlam	#2,	r14	
    80d2:	5f 0e       	rlam	#4,	r15	
    80d4:	0f 8e       	sub	r14,	r15	
    80d6:	b0 12 06 87 	call	#0x8706	
    80da:	b0 12 8e 8a 	call	#0x8a8e	
    80de:	b0 12 56 81 	call	#0x8156	
    80e2:	b0 12 aa 8a 	call	#0x8aaa	
    80e6:	3f 40 f8 ad 	mov	#-21000,r15	;#0xadf8
    80ea:	b0 12 18 8c 	call	#0x8c18	
    80ee:	3f 40 f8 ad 	mov	#-21000,r15	;#0xadf8
    80f2:	b0 12 40 81 	call	#0x8140	
    80f6:	b0 12 7e 89 	call	#0x897e	
    80fa:	f2 f0 7f 00 	and.b	#127,	&0x0202	;#0x007f
    80fe:	02 02 
    8100:	3f 40 72 ad 	mov	#-21134,r15	;#0xad72
    8104:	b0 12 24 a9 	call	#0xa924	
    8108:	b0 12 3a 84 	call	#0x843a	
    810c:	0f 93       	tst	r15		
    810e:	01 24       	jz	$+4      	;abs 0x8112
    8110:	fb 37       	jge	$-8      	;abs 0x8108
    8112:	32 c2       	dint			
    8114:	03 43       	nop			
    8116:	03 43       	nop			
    8118:	b0 12 de 84 	call	#0x84de	
    811c:	0f 93       	tst	r15		
    811e:	04 20       	jnz	$+10     	;abs 0x8128
    8120:	5f 42 ca 05 	mov.b	&0x05ca,r15	
    8124:	1f f3       	and	#1,	r15	;r3 As==01
    8126:	03 24       	jz	$+8      	;abs 0x812e
    8128:	32 d2       	eint			
    812a:	03 43       	nop			
    812c:	ed 3f       	jmp	$-36     	;abs 0x8108
    812e:	32 d0 d8 00 	bis	#216,	r2	;#0x00d8
    8132:	03 43       	nop			
    8134:	e9 3f       	jmp	$-44     	;abs 0x8108

00008136 <__stop_progExec__>:
    8136:	32 d0 f0 00 	bis	#240,	r2	;#0x00f0
    813a:	fd 3f       	jmp	$-4      	;abs 0x8136

0000813c <__ctors_end>:
    813c:	30 40 ce a9 	br	#0xa9ce	

00008140 <autostart_start>:
    8140:	0b 12       	push	r11		
    8142:	0b 4f       	mov	r15,	r11	
    8144:	03 3c       	jmp	$+8      	;abs 0x814c
    8146:	0e 43       	clr	r14		
    8148:	b0 12 42 85 	call	#0x8542	
    814c:	3f 4b       	mov	@r11+,	r15	
    814e:	0f 93       	tst	r15		
    8150:	fa 23       	jnz	$-10     	;abs 0x8146
    8152:	3b 41       	pop	r11		
    8154:	30 41       	ret			

00008156 <energest_init>:
    8156:	30 41       	ret			

00008158 <update_time>:
    8158:	2b 15       	pushm	#3,	r11	
    815a:	82 93 4c 1c 	tst	&0x1c4c	
    815e:	05 20       	jnz	$+12     	;abs 0x816a
    8160:	82 43 4e 1c 	mov	#0,	&0x1c4e	;r3 As==00
    8164:	82 43 50 1c 	mov	#0,	&0x1c50	;r3 As==00
    8168:	2d 3c       	jmp	$+92     	;abs 0x81c4
    816a:	b0 12 2a 99 	call	#0x992a	
    816e:	1a 42 4c 1c 	mov	&0x1c4c,r10	
    8172:	1c 4a 04 00 	mov	4(r10),	r12	;0x0004(r10)
    8176:	1d 4a 06 00 	mov	6(r10),	r13	;0x0006(r10)
    817a:	2c 5a       	add	@r10,	r12	
    817c:	1d 6a 02 00 	addc	2(r10),	r13	;0x0002(r10)
    8180:	0c 8e       	sub	r14,	r12	
    8182:	0d 7f       	subc	r15,	r13	
    8184:	19 4a 08 00 	mov	8(r10),	r9	;0x0008(r10)
    8188:	13 3c       	jmp	$+40     	;abs 0x81b0
    818a:	1a 49 04 00 	mov	4(r9),	r10	;0x0004(r9)
    818e:	1b 49 06 00 	mov	6(r9),	r11	;0x0006(r9)
    8192:	2a 59       	add	@r9,	r10	
    8194:	1b 69 02 00 	addc	2(r9),	r11	;0x0002(r9)
    8198:	0a 8e       	sub	r14,	r10	
    819a:	0b 7f       	subc	r15,	r11	
    819c:	0b 9d       	cmp	r13,	r11	
    819e:	04 28       	jnc	$+10     	;abs 0x81a8
    81a0:	0d 9b       	cmp	r11,	r13	
    81a2:	04 28       	jnc	$+10     	;abs 0x81ac
    81a4:	0a 9c       	cmp	r12,	r10	
    81a6:	02 2c       	jc	$+6      	;abs 0x81ac
    81a8:	0c 4a       	mov	r10,	r12	
    81aa:	0d 4b       	mov	r11,	r13	
    81ac:	19 49 08 00 	mov	8(r9),	r9	;0x0008(r9)
    81b0:	09 93       	tst	r9		
    81b2:	eb 23       	jnz	$-40     	;abs 0x818a
    81b4:	0a 4c       	mov	r12,	r10	
    81b6:	0b 4d       	mov	r13,	r11	
    81b8:	0a 5e       	add	r14,	r10	
    81ba:	0b 6f       	addc	r15,	r11	
    81bc:	82 4a 4e 1c 	mov	r10,	&0x1c4e	
    81c0:	82 4b 50 1c 	mov	r11,	&0x1c50	
    81c4:	29 17       	popm	#3,	r11	
    81c6:	30 41       	ret			

000081c8 <etimer_request_poll>:
    81c8:	3f 40 00 1c 	mov	#7168,	r15	;#0x1c00
    81cc:	b0 12 74 85 	call	#0x8574	
    81d0:	30 41       	ret			

000081d2 <process_thread_etimer_process>:
    81d2:	2b 15       	pushm	#3,	r11	
    81d4:	0a 4f       	mov	r15,	r10	
    81d6:	2f 4f       	mov	@r15,	r15	
    81d8:	0f 93       	tst	r15		
    81da:	04 24       	jz	$+10     	;abs 0x81e4
    81dc:	3f 90 5a 00 	cmp	#90,	r15	;#0x005a
    81e0:	52 20       	jnz	$+166    	;abs 0x8286
    81e2:	07 3c       	jmp	$+16     	;abs 0x81f2
    81e4:	82 43 4c 1c 	mov	#0,	&0x1c4c	;r3 As==00
    81e8:	ba 40 5a 00 	mov	#90,	0(r10)	;#0x005a, 0x0000(r10)
    81ec:	00 00 
    81ee:	5f 43       	mov.b	#1,	r15	;r3 As==01
    81f0:	4e 3c       	jmp	$+158    	;abs 0x828e
    81f2:	7e 90 87 ff 	cmp.b	#-121,	r14	;#0xff87
    81f6:	1a 20       	jnz	$+54     	;abs 0x822c
    81f8:	1e 42 4c 1c 	mov	&0x1c4c,r14	
    81fc:	02 3c       	jmp	$+6      	;abs 0x8202
    81fe:	1e 4e 08 00 	mov	8(r14),	r14	;0x0008(r14)
    8202:	0e 93       	tst	r14		
    8204:	ef 27       	jz	$-32     	;abs 0x81e4
    8206:	8e 9d 0a 00 	cmp	r13,	10(r14)	;0x000a(r14)
    820a:	f9 27       	jz	$-12     	;abs 0x81fe
    820c:	82 4e 4c 1c 	mov	r14,	&0x1c4c	
    8210:	08 3c       	jmp	$+18     	;abs 0x8222
    8212:	8c 9d 0a 00 	cmp	r13,	10(r12)	;0x000a(r12)
    8216:	04 20       	jnz	$+10     	;abs 0x8220
    8218:	9e 4c 08 00 	mov	8(r12),	8(r14)	;0x0008(r12), 0x0008(r14)
    821c:	08 00 
    821e:	0c 4e       	mov	r14,	r12	
    8220:	0e 4c       	mov	r12,	r14	
    8222:	1c 4e 08 00 	mov	8(r14),	r12	;0x0008(r14)
    8226:	0c 93       	tst	r12		
    8228:	f4 23       	jnz	$-22     	;abs 0x8212
    822a:	de 3f       	jmp	$-66     	;abs 0x81e8
    822c:	7e 90 82 ff 	cmp.b	#-126,	r14	;#0xff82
    8230:	db 23       	jnz	$-72     	;abs 0x81e8
    8232:	1b 42 4c 1c 	mov	&0x1c4c,r11	
    8236:	09 43       	clr	r9		
    8238:	23 3c       	jmp	$+72     	;abs 0x8280
    823a:	0f 4b       	mov	r11,	r15	
    823c:	b0 12 a8 85 	call	#0x85a8	
    8240:	0f 93       	tst	r15		
    8242:	1b 24       	jz	$+56     	;abs 0x827a
    8244:	0d 4b       	mov	r11,	r13	
    8246:	7e 40 88 ff 	mov.b	#-120,	r14	;#0xff88
    824a:	1f 4b 0a 00 	mov	10(r11),r15	;0x000a(r11)
    824e:	b0 12 ec 84 	call	#0x84ec	
    8252:	0f 93       	tst	r15		
    8254:	10 20       	jnz	$+34     	;abs 0x8276
    8256:	8b 43 0a 00 	mov	#0,	10(r11)	;r3 As==00, 0x000a(r11)
    825a:	09 93       	tst	r9		
    825c:	04 24       	jz	$+10     	;abs 0x8266
    825e:	99 4b 08 00 	mov	8(r11),	8(r9)	;0x0008(r11), 0x0008(r9)
    8262:	08 00 
    8264:	03 3c       	jmp	$+8      	;abs 0x826c
    8266:	92 4b 08 00 	mov	8(r11),	&0x1c4c	;0x0008(r11)
    826a:	4c 1c 
    826c:	8b 43 08 00 	mov	#0,	8(r11)	;r3 As==00, 0x0008(r11)
    8270:	b0 12 58 81 	call	#0x8158	
    8274:	de 3f       	jmp	$-66     	;abs 0x8232
    8276:	b0 12 c8 81 	call	#0x81c8	
    827a:	09 4b       	mov	r11,	r9	
    827c:	1b 4b 08 00 	mov	8(r11),	r11	;0x0008(r11)
    8280:	0b 93       	tst	r11		
    8282:	db 23       	jnz	$-72     	;abs 0x823a
    8284:	b1 3f       	jmp	$-156    	;abs 0x81e8
    8286:	8a 43 00 00 	mov	#0,	0(r10)	;r3 As==00, 0x0000(r10)
    828a:	7f 40 03 00 	mov.b	#3,	r15	;#0x0003
    828e:	29 17       	popm	#3,	r11	
    8290:	30 41       	ret			

00008292 <add_timer>:
    8292:	0b 12       	push	r11		
    8294:	0b 4f       	mov	r15,	r11	
    8296:	b0 12 c8 81 	call	#0x81c8	
    829a:	8b 93 0a 00 	tst	10(r11)	;0x000a(r11)
    829e:	0d 24       	jz	$+28     	;abs 0x82ba
    82a0:	1f 42 4c 1c 	mov	&0x1c4c,r15	
    82a4:	08 3c       	jmp	$+18     	;abs 0x82b6
    82a6:	0f 9b       	cmp	r11,	r15	
    82a8:	04 20       	jnz	$+10     	;abs 0x82b2
    82aa:	9f 42 54 1c 	mov	&0x1c54,10(r15)	;0x000a(r15)
    82ae:	0a 00 
    82b0:	0c 3c       	jmp	$+26     	;abs 0x82ca
    82b2:	1f 4f 08 00 	mov	8(r15),	r15	;0x0008(r15)
    82b6:	0f 93       	tst	r15		
    82b8:	f6 23       	jnz	$-18     	;abs 0x82a6
    82ba:	9b 42 54 1c 	mov	&0x1c54,10(r11)	;0x000a(r11)
    82be:	0a 00 
    82c0:	9b 42 4c 1c 	mov	&0x1c4c,8(r11)	;0x0008(r11)
    82c4:	08 00 
    82c6:	82 4b 4c 1c 	mov	r11,	&0x1c4c	
    82ca:	b0 12 58 81 	call	#0x8158	
    82ce:	3b 41       	pop	r11		
    82d0:	30 41       	ret			

000082d2 <etimer_set>:
    82d2:	0b 12       	push	r11		
    82d4:	0b 4f       	mov	r15,	r11	
    82d6:	b0 12 8c 85 	call	#0x858c	
    82da:	0f 4b       	mov	r11,	r15	
    82dc:	b0 12 92 82 	call	#0x8292	
    82e0:	3b 41       	pop	r11		
    82e2:	30 41       	ret			

000082e4 <etimer_expired>:
    82e4:	1e 43       	mov	#1,	r14	;r3 As==01
    82e6:	8f 93 0a 00 	tst	10(r15)	;0x000a(r15)
    82ea:	01 24       	jz	$+4      	;abs 0x82ee
    82ec:	0e 43       	clr	r14		
    82ee:	0f 4e       	mov	r14,	r15	
    82f0:	30 41       	ret			

000082f2 <etimer_pending>:
    82f2:	1f 43       	mov	#1,	r15	;r3 As==01
    82f4:	82 93 4c 1c 	tst	&0x1c4c	
    82f8:	01 20       	jnz	$+4      	;abs 0x82fc
    82fa:	0f 43       	clr	r15		
    82fc:	30 41       	ret			

000082fe <etimer_next_expiration_time>:
    82fe:	82 93 4c 1c 	tst	&0x1c4c	
    8302:	05 24       	jz	$+12     	;abs 0x830e
    8304:	1e 42 4e 1c 	mov	&0x1c4e,r14	
    8308:	1f 42 50 1c 	mov	&0x1c50,r15	
    830c:	30 41       	ret			
    830e:	0e 43       	clr	r14		
    8310:	0f 43       	clr	r15		
    8312:	30 41       	ret			

00008314 <call_process>:
    8314:	1b 15       	pushm	#2,	r11	
    8316:	0b 4f       	mov	r15,	r11	
    8318:	4a 4e       	mov.b	r14,	r10	
    831a:	5f 4f 08 00 	mov.b	8(r15),	r15	;0x0008(r15)
    831e:	1f f3       	and	#1,	r15	;r3 As==01
    8320:	1a 24       	jz	$+54     	;abs 0x8356
    8322:	1c 4b 04 00 	mov	4(r11),	r12	;0x0004(r11)
    8326:	0c 93       	tst	r12		
    8328:	16 24       	jz	$+46     	;abs 0x8356
    832a:	82 4b 54 1c 	mov	r11,	&0x1c54	
    832e:	eb 43 08 00 	mov.b	#2,	8(r11)	;r3 As==10, 0x0008(r11)
    8332:	0f 4b       	mov	r11,	r15	
    8334:	3f 50 06 00 	add	#6,	r15	;#0x0006
    8338:	8c 12       	call	r12		
    833a:	8f 11       	sxt	r15		
    833c:	2f 83       	decd	r15		
    833e:	2f 93       	cmp	#2,	r15	;r3 As==10
    8340:	03 28       	jnc	$+8      	;abs 0x8348
    8342:	7a 90 83 ff 	cmp.b	#-125,	r10	;#0xff83
    8346:	05 20       	jnz	$+12     	;abs 0x8352
    8348:	0e 4b       	mov	r11,	r14	
    834a:	0f 4b       	mov	r11,	r15	
    834c:	b0 12 5a 83 	call	#0x835a	
    8350:	02 3c       	jmp	$+6      	;abs 0x8356
    8352:	db 43 08 00 	mov.b	#1,	8(r11)	;r3 As==01, 0x0008(r11)
    8356:	1a 17       	popm	#2,	r11	
    8358:	30 41       	ret			

0000835a <exit_process>:
    835a:	3b 15       	pushm	#4,	r11	
    835c:	0b 4f       	mov	r15,	r11	
    835e:	08 4e       	mov	r14,	r8	
    8360:	19 42 54 1c 	mov	&0x1c54,r9	
    8364:	1a 42 56 1c 	mov	&0x1c56,r10	
    8368:	0f 4a       	mov	r10,	r15	
    836a:	01 3c       	jmp	$+4      	;abs 0x836e
    836c:	2f 4f       	mov	@r15,	r15	
    836e:	0f 9b       	cmp	r11,	r15	
    8370:	03 24       	jz	$+8      	;abs 0x8378
    8372:	0f 93       	tst	r15		
    8374:	fb 23       	jnz	$-8      	;abs 0x836c
    8376:	34 3c       	jmp	$+106    	;abs 0x83e0
    8378:	0b 93       	tst	r11		
    837a:	32 24       	jz	$+102    	;abs 0x83e0
    837c:	cb 93 08 00 	tst.b	8(r11)		;0x0008(r11)
    8380:	1d 24       	jz	$+60     	;abs 0x83bc
    8382:	cb 43 08 00 	mov.b	#0,	8(r11)	;r3 As==00, 0x0008(r11)
    8386:	09 3c       	jmp	$+20     	;abs 0x839a
    8388:	0b 9a       	cmp	r10,	r11	
    838a:	06 24       	jz	$+14     	;abs 0x8398
    838c:	0d 4b       	mov	r11,	r13	
    838e:	7e 40 87 ff 	mov.b	#-121,	r14	;#0xff87
    8392:	0f 4a       	mov	r10,	r15	
    8394:	b0 12 14 83 	call	#0x8314	
    8398:	2a 4a       	mov	@r10,	r10	
    839a:	0a 93       	tst	r10		
    839c:	f5 23       	jnz	$-20     	;abs 0x8388
    839e:	1c 4b 04 00 	mov	4(r11),	r12	;0x0004(r11)
    83a2:	0c 93       	tst	r12		
    83a4:	0b 24       	jz	$+24     	;abs 0x83bc
    83a6:	0b 98       	cmp	r8,	r11	
    83a8:	09 24       	jz	$+20     	;abs 0x83bc
    83aa:	82 4b 54 1c 	mov	r11,	&0x1c54	
    83ae:	0d 43       	clr	r13		
    83b0:	7e 40 83 ff 	mov.b	#-125,	r14	;#0xff83
    83b4:	0f 4b       	mov	r11,	r15	
    83b6:	3f 50 06 00 	add	#6,	r15	;#0x0006
    83ba:	8c 12       	call	r12		
    83bc:	1f 42 56 1c 	mov	&0x1c56,r15	
    83c0:	0b 9f       	cmp	r15,	r11	
    83c2:	0a 20       	jnz	$+22     	;abs 0x83d8
    83c4:	a2 4b 56 1c 	mov	@r11,	&0x1c56	
    83c8:	09 3c       	jmp	$+20     	;abs 0x83dc
    83ca:	2e 4f       	mov	@r15,	r14	
    83cc:	0e 9b       	cmp	r11,	r14	
    83ce:	03 20       	jnz	$+8      	;abs 0x83d6
    83d0:	af 4b 00 00 	mov	@r11,	0(r15)	;0x0000(r15)
    83d4:	03 3c       	jmp	$+8      	;abs 0x83dc
    83d6:	0f 4e       	mov	r14,	r15	
    83d8:	0f 93       	tst	r15		
    83da:	f7 23       	jnz	$-16     	;abs 0x83ca
    83dc:	82 49 54 1c 	mov	r9,	&0x1c54	
    83e0:	38 17       	popm	#4,	r11	
    83e2:	30 41       	ret			

000083e4 <do_poll>:
    83e4:	0b 12       	push	r11		
    83e6:	c2 43 52 1c 	mov.b	#0,	&0x1c52	;r3 As==00
    83ea:	1b 42 56 1c 	mov	&0x1c56,r11	
    83ee:	0e 3c       	jmp	$+30     	;abs 0x840c
    83f0:	cb 93 09 00 	tst.b	9(r11)		;0x0009(r11)
    83f4:	0a 24       	jz	$+22     	;abs 0x840a
    83f6:	db 43 08 00 	mov.b	#1,	8(r11)	;r3 As==01, 0x0008(r11)
    83fa:	cb 43 09 00 	mov.b	#0,	9(r11)	;r3 As==00, 0x0009(r11)
    83fe:	0d 43       	clr	r13		
    8400:	7e 40 82 ff 	mov.b	#-126,	r14	;#0xff82
    8404:	0f 4b       	mov	r11,	r15	
    8406:	b0 12 14 83 	call	#0x8314	
    840a:	2b 4b       	mov	@r11,	r11	
    840c:	0b 93       	tst	r11		
    840e:	f0 23       	jnz	$-30     	;abs 0x83f0
    8410:	3b 41       	pop	r11		
    8412:	30 41       	ret			

00008414 <process_alloc_event>:
    8414:	5f 42 58 1c 	mov.b	&0x1c58,r15	
    8418:	4e 4f       	mov.b	r15,	r14	
    841a:	5e 53       	inc.b	r14		
    841c:	c2 4e 58 1c 	mov.b	r14,	&0x1c58	
    8420:	30 41       	ret			

00008422 <process_init>:
    8422:	f2 40 8a ff 	mov.b	#-118,	&0x1c58	;#0xff8a
    8426:	58 1c 
    8428:	c2 43 59 1c 	mov.b	#0,	&0x1c59	;r3 As==00
    842c:	c2 43 5a 1c 	mov.b	#0,	&0x1c5a	;r3 As==00
    8430:	82 43 56 1c 	mov	#0,	&0x1c56	;r3 As==00
    8434:	82 43 54 1c 	mov	#0,	&0x1c54	;r3 As==00
    8438:	30 41       	ret			

0000843a <process_run>:
    843a:	0b 12       	push	r11		
    843c:	5f 42 52 1c 	mov.b	&0x1c52,r15	
    8440:	4f 93       	tst.b	r15		
    8442:	02 24       	jz	$+6      	;abs 0x8448
    8444:	b0 12 e4 83 	call	#0x83e4	
    8448:	5b 42 5a 1c 	mov.b	&0x1c5a,r11	
    844c:	4b 93       	tst.b	r11		
    844e:	3f 24       	jz	$+128    	;abs 0x84ce
    8450:	5c 42 59 1c 	mov.b	&0x1c59,r12	
    8454:	0e 4c       	mov	r12,	r14	
    8456:	5e 02       	rlam	#1,	r14	
    8458:	0f 4c       	mov	r12,	r15	
    845a:	5f 0a       	rlam	#3,	r15	
    845c:	0f 8e       	sub	r14,	r15	
    845e:	3f 50 5c 1c 	add	#7260,	r15	;#0x1c5c
    8462:	6e 4f       	mov.b	@r15,	r14	
    8464:	c2 4e 1c 1d 	mov.b	r14,	&0x1d1c	
    8468:	1d 4f 02 00 	mov	2(r15),	r13	;0x0002(r15)
    846c:	82 4d 1e 1d 	mov	r13,	&0x1d1e	
    8470:	1f 4f 04 00 	mov	4(r15),	r15	;0x0004(r15)
    8474:	82 4f 20 1d 	mov	r15,	&0x1d20	
    8478:	1c 53       	inc	r12		
    847a:	7c f0 1f 00 	and.b	#31,	r12	;#0x001f
    847e:	c2 4c 59 1c 	mov.b	r12,	&0x1c59	
    8482:	7b 53       	add.b	#-1,	r11	;r3 As==11
    8484:	c2 4b 5a 1c 	mov.b	r11,	&0x1c5a	
    8488:	0f 93       	tst	r15		
    848a:	1a 20       	jnz	$+54     	;abs 0x84c0
    848c:	92 42 56 1c 	mov	&0x1c56,&0x1d22	
    8490:	22 1d 
    8492:	12 3c       	jmp	$+38     	;abs 0x84b8
    8494:	5f 42 52 1c 	mov.b	&0x1c52,r15	
    8498:	4f 93       	tst.b	r15		
    849a:	02 24       	jz	$+6      	;abs 0x84a0
    849c:	b0 12 e4 83 	call	#0x83e4	
    84a0:	1d 42 1e 1d 	mov	&0x1d1e,r13	
    84a4:	5e 42 1c 1d 	mov.b	&0x1d1c,r14	
    84a8:	1f 42 22 1d 	mov	&0x1d22,r15	
    84ac:	b0 12 14 83 	call	#0x8314	
    84b0:	1f 42 22 1d 	mov	&0x1d22,r15	
    84b4:	a2 4f 22 1d 	mov	@r15,	&0x1d22	
    84b8:	82 93 22 1d 	tst	&0x1d22	
    84bc:	eb 23       	jnz	$-40     	;abs 0x8494
    84be:	07 3c       	jmp	$+16     	;abs 0x84ce
    84c0:	7e 90 81 ff 	cmp.b	#-127,	r14	;#0xff81
    84c4:	02 20       	jnz	$+6      	;abs 0x84ca
    84c6:	df 43 08 00 	mov.b	#1,	8(r15)	;r3 As==01, 0x0008(r15)
    84ca:	b0 12 14 83 	call	#0x8314	
    84ce:	5f 42 52 1c 	mov.b	&0x1c52,r15	
    84d2:	5e 42 5a 1c 	mov.b	&0x1c5a,r14	
    84d6:	4f 4f       	mov.b	r15,	r15	
    84d8:	0f 5e       	add	r14,	r15	
    84da:	3b 41       	pop	r11		
    84dc:	30 41       	ret			

000084de <process_nevents>:
    84de:	5f 42 52 1c 	mov.b	&0x1c52,r15	
    84e2:	5e 42 5a 1c 	mov.b	&0x1c5a,r14	
    84e6:	4f 4f       	mov.b	r15,	r15	
    84e8:	0f 5e       	add	r14,	r15	
    84ea:	30 41       	ret			

000084ec <process_post>:
    84ec:	1b 15       	pushm	#2,	r11	
    84ee:	5b 42 5a 1c 	mov.b	&0x1c5a,r11	
    84f2:	7b 90 20 00 	cmp.b	#32,	r11	;#0x0020
    84f6:	19 24       	jz	$+52     	;abs 0x852a
    84f8:	4c 4b       	mov.b	r11,	r12	
    84fa:	5c 52 59 1c 	add.b	&0x1c59,r12	
    84fe:	7c f0 1f 00 	and.b	#31,	r12	;#0x001f
    8502:	c2 4c 24 1d 	mov.b	r12,	&0x1d24	
    8506:	4c 4c       	mov.b	r12,	r12	
    8508:	0a 4c       	mov	r12,	r10	
    850a:	5a 02       	rlam	#1,	r10	
    850c:	5c 0a       	rlam	#3,	r12	
    850e:	0c 8a       	sub	r10,	r12	
    8510:	3c 50 5c 1c 	add	#7260,	r12	;#0x1c5c
    8514:	cc 4e 00 00 	mov.b	r14,	0(r12)	;0x0000(r12)
    8518:	8c 4d 02 00 	mov	r13,	2(r12)	;0x0002(r12)
    851c:	8c 4f 04 00 	mov	r15,	4(r12)	;0x0004(r12)
    8520:	5b 53       	inc.b	r11		
    8522:	c2 4b 5a 1c 	mov.b	r11,	&0x1c5a	
    8526:	0f 43       	clr	r15		
    8528:	01 3c       	jmp	$+4      	;abs 0x852c
    852a:	1f 43       	mov	#1,	r15	;r3 As==01
    852c:	1a 17       	popm	#2,	r11	
    852e:	30 41       	ret			

00008530 <process_post_synch>:
    8530:	0b 12       	push	r11		
    8532:	1b 42 54 1c 	mov	&0x1c54,r11	
    8536:	b0 12 14 83 	call	#0x8314	
    853a:	82 4b 54 1c 	mov	r11,	&0x1c54	
    853e:	3b 41       	pop	r11		
    8540:	30 41       	ret			

00008542 <process_start>:
    8542:	1d 42 56 1c 	mov	&0x1c56,r13	
    8546:	0c 4d       	mov	r13,	r12	
    8548:	01 3c       	jmp	$+4      	;abs 0x854c
    854a:	2c 4c       	mov	@r12,	r12	
    854c:	0c 9f       	cmp	r15,	r12	
    854e:	11 24       	jz	$+36     	;abs 0x8572
    8550:	0c 93       	tst	r12		
    8552:	fb 23       	jnz	$-8      	;abs 0x854a
    8554:	0f 93       	tst	r15		
    8556:	0d 24       	jz	$+28     	;abs 0x8572
    8558:	8f 4d 00 00 	mov	r13,	0(r15)	;0x0000(r15)
    855c:	82 4f 56 1c 	mov	r15,	&0x1c56	
    8560:	df 43 08 00 	mov.b	#1,	8(r15)	;r3 As==01, 0x0008(r15)
    8564:	8f 43 06 00 	mov	#0,	6(r15)	;r3 As==00, 0x0006(r15)
    8568:	0d 4e       	mov	r14,	r13	
    856a:	7e 40 81 ff 	mov.b	#-127,	r14	;#0xff81
    856e:	b0 12 30 85 	call	#0x8530	
    8572:	30 41       	ret			

00008574 <process_poll>:
    8574:	0f 93       	tst	r15		
    8576:	09 24       	jz	$+20     	;abs 0x858a
    8578:	5e 4f 08 00 	mov.b	8(r15),	r14	;0x0008(r15)
    857c:	7e 53       	add.b	#-1,	r14	;r3 As==11
    857e:	6e 93       	cmp.b	#2,	r14	;r3 As==10
    8580:	04 2c       	jc	$+10     	;abs 0x858a
    8582:	df 43 09 00 	mov.b	#1,	9(r15)	;r3 As==01, 0x0009(r15)
    8586:	d2 43 52 1c 	mov.b	#1,	&0x1c52	;r3 As==01
    858a:	30 41       	ret			

0000858c <timer_set>:
    858c:	0b 12       	push	r11		
    858e:	0b 4f       	mov	r15,	r11	
    8590:	8f 4d 04 00 	mov	r13,	4(r15)	;0x0004(r15)
    8594:	8f 4e 06 00 	mov	r14,	6(r15)	;0x0006(r15)
    8598:	b0 12 2a 99 	call	#0x992a	
    859c:	8b 4e 00 00 	mov	r14,	0(r11)	;0x0000(r11)
    85a0:	8b 4f 02 00 	mov	r15,	2(r11)	;0x0002(r11)
    85a4:	3b 41       	pop	r11		
    85a6:	30 41       	ret			

000085a8 <timer_expired>:
    85a8:	0b 12       	push	r11		
    85aa:	0b 4f       	mov	r15,	r11	
    85ac:	b0 12 2a 99 	call	#0x992a	
    85b0:	2e 8b       	sub	@r11,	r14	
    85b2:	1f 7b 02 00 	subc	2(r11),	r15	;0x0002(r11)
    85b6:	1e 53       	inc	r14		
    85b8:	0f 63       	adc	r15		
    85ba:	1d 43       	mov	#1,	r13	;r3 As==01
    85bc:	8b 9f 06 00 	cmp	r15,	6(r11)	;0x0006(r11)
    85c0:	05 28       	jnc	$+12     	;abs 0x85cc
    85c2:	03 20       	jnz	$+8      	;abs 0x85ca
    85c4:	8b 9e 04 00 	cmp	r14,	4(r11)	;0x0004(r11)
    85c8:	01 28       	jnc	$+4      	;abs 0x85cc
    85ca:	0d 43       	clr	r13		
    85cc:	0f 4d       	mov	r13,	r15	
    85ce:	3b 41       	pop	r11		
    85d0:	30 41       	ret			

000085d2 <list_init>:
    85d2:	8f 43 00 00 	mov	#0,	0(r15)	;r3 As==00, 0x0000(r15)
    85d6:	30 41       	ret			

000085d8 <list_head>:
    85d8:	2f 4f       	mov	@r15,	r15	
    85da:	30 41       	ret			

000085dc <list_tail>:
    85dc:	2f 4f       	mov	@r15,	r15	
    85de:	0f 93       	tst	r15		
    85e0:	02 20       	jnz	$+6      	;abs 0x85e6
    85e2:	30 41       	ret			
    85e4:	0f 4e       	mov	r14,	r15	
    85e6:	2e 4f       	mov	@r15,	r14	
    85e8:	0e 93       	tst	r14		
    85ea:	fc 23       	jnz	$-6      	;abs 0x85e4
    85ec:	30 41       	ret			

000085ee <list_remove>:
    85ee:	0b 12       	push	r11		
    85f0:	2d 4f       	mov	@r15,	r13	
    85f2:	0d 93       	tst	r13		
    85f4:	14 24       	jz	$+42     	;abs 0x861e
    85f6:	0c 43       	clr	r12		
    85f8:	02 3c       	jmp	$+6      	;abs 0x85fe
    85fa:	0c 4d       	mov	r13,	r12	
    85fc:	0d 4b       	mov	r11,	r13	
    85fe:	0d 9e       	cmp	r14,	r13	
    8600:	0b 20       	jnz	$+24     	;abs 0x8618
    8602:	2e 4d       	mov	@r13,	r14	
    8604:	0c 93       	tst	r12		
    8606:	03 20       	jnz	$+8      	;abs 0x860e
    8608:	8f 4e 00 00 	mov	r14,	0(r15)	;0x0000(r15)
    860c:	02 3c       	jmp	$+6      	;abs 0x8612
    860e:	8c 4e 00 00 	mov	r14,	0(r12)	;0x0000(r12)
    8612:	8d 43 00 00 	mov	#0,	0(r13)	;r3 As==00, 0x0000(r13)
    8616:	03 3c       	jmp	$+8      	;abs 0x861e
    8618:	2b 4d       	mov	@r13,	r11	
    861a:	0b 93       	tst	r11		
    861c:	ee 23       	jnz	$-34     	;abs 0x85fa
    861e:	3b 41       	pop	r11		
    8620:	30 41       	ret			

00008622 <list_add>:
    8622:	1b 15       	pushm	#2,	r11	
    8624:	0a 4f       	mov	r15,	r10	
    8626:	0b 4e       	mov	r14,	r11	
    8628:	b0 12 ee 85 	call	#0x85ee	
    862c:	8b 43 00 00 	mov	#0,	0(r11)	;r3 As==00, 0x0000(r11)
    8630:	0f 4a       	mov	r10,	r15	
    8632:	b0 12 dc 85 	call	#0x85dc	
    8636:	0f 93       	tst	r15		
    8638:	03 20       	jnz	$+8      	;abs 0x8640
    863a:	8a 4b 00 00 	mov	r11,	0(r10)	;0x0000(r10)
    863e:	02 3c       	jmp	$+6      	;abs 0x8644
    8640:	8f 4b 00 00 	mov	r11,	0(r15)	;0x0000(r15)
    8644:	1a 17       	popm	#2,	r11	
    8646:	30 41       	ret			

00008648 <list_length>:
    8648:	2e 4f       	mov	@r15,	r14	
    864a:	0f 43       	clr	r15		
    864c:	02 3c       	jmp	$+6      	;abs 0x8652
    864e:	1f 53       	inc	r15		
    8650:	2e 4e       	mov	@r14,	r14	
    8652:	0e 93       	tst	r14		
    8654:	fc 23       	jnz	$-6      	;abs 0x864e
    8656:	30 41       	ret			

00008658 <memb_init>:
    8658:	0b 12       	push	r11		
    865a:	0b 4f       	mov	r15,	r11	
    865c:	1d 4f 02 00 	mov	2(r15),	r13	;0x0002(r15)
    8660:	0e 43       	clr	r14		
    8662:	1f 4f 04 00 	mov	4(r15),	r15	;0x0004(r15)
    8666:	b0 12 da 9f 	call	#0x9fda	
    866a:	02 12       	push	r2		
    866c:	32 c2       	dint			
    866e:	03 43       	nop			
    8670:	92 4b 02 00 	mov	2(r11),	&0x04c2	;0x0002(r11)
    8674:	c2 04 
    8676:	a2 4b c8 04 	mov	@r11,	&0x04c8	
    867a:	1d 42 ca 04 	mov	&0x04ca,r13	
    867e:	32 41       	pop	r2		
    8680:	0e 43       	clr	r14		
    8682:	1f 4b 06 00 	mov	6(r11),	r15	;0x0006(r11)
    8686:	b0 12 da 9f 	call	#0x9fda	
    868a:	3b 41       	pop	r11		
    868c:	30 41       	ret			

0000868e <memb_alloc>:
    868e:	1c 4f 02 00 	mov	2(r15),	r12	;0x0002(r15)
    8692:	0e 43       	clr	r14		
    8694:	16 3c       	jmp	$+46     	;abs 0x86c2
    8696:	1d 4f 04 00 	mov	4(r15),	r13	;0x0004(r15)
    869a:	0d 5e       	add	r14,	r13	
    869c:	cd 93 00 00 	tst.b	0(r13)		;0x0000(r13)
    86a0:	0f 20       	jnz	$+32     	;abs 0x86c0
    86a2:	dd 43 00 00 	mov.b	#1,	0(r13)	;r3 As==01, 0x0000(r13)
    86a6:	02 12       	push	r2		
    86a8:	32 c2       	dint			
    86aa:	03 43       	nop			
    86ac:	82 4e c2 04 	mov	r14,	&0x04c2	
    86b0:	a2 4f c8 04 	mov	@r15,	&0x04c8	
    86b4:	1e 42 ca 04 	mov	&0x04ca,r14	
    86b8:	32 41       	pop	r2		
    86ba:	1e 5f 06 00 	add	6(r15),	r14	;0x0006(r15)
    86be:	04 3c       	jmp	$+10     	;abs 0x86c8
    86c0:	1e 53       	inc	r14		
    86c2:	0e 9c       	cmp	r12,	r14	
    86c4:	e8 23       	jnz	$-46     	;abs 0x8696
    86c6:	0e 43       	clr	r14		
    86c8:	0f 4e       	mov	r14,	r15	
    86ca:	30 41       	ret			

000086cc <memb_free>:
    86cc:	0b 12       	push	r11		
    86ce:	1c 4f 06 00 	mov	6(r15),	r12	;0x0006(r15)
    86d2:	1b 4f 02 00 	mov	2(r15),	r11	;0x0002(r15)
    86d6:	0d 43       	clr	r13		
    86d8:	11 3c       	jmp	$+36     	;abs 0x86fc
    86da:	0c 9e       	cmp	r14,	r12	
    86dc:	0d 20       	jnz	$+28     	;abs 0x86f8
    86de:	1e 4f 04 00 	mov	4(r15),	r14	;0x0004(r15)
    86e2:	0e 5d       	add	r13,	r14	
    86e4:	6c 4e       	mov.b	@r14,	r12	
    86e6:	5c 93       	cmp.b	#1,	r12	;r3 As==01
    86e8:	03 38       	jl	$+8      	;abs 0x86f0
    86ea:	7c 53       	add.b	#-1,	r12	;r3 As==11
    86ec:	ce 4c 00 00 	mov.b	r12,	0(r14)	;0x0000(r14)
    86f0:	1d 5f 04 00 	add	4(r15),	r13	;0x0004(r15)
    86f4:	6f 4d       	mov.b	@r13,	r15	
    86f6:	05 3c       	jmp	$+12     	;abs 0x8702
    86f8:	2c 5f       	add	@r15,	r12	
    86fa:	1d 53       	inc	r13		
    86fc:	0d 9b       	cmp	r11,	r13	
    86fe:	ed 23       	jnz	$-36     	;abs 0x86da
    8700:	7f 43       	mov.b	#-1,	r15	;r3 As==11
    8702:	3b 41       	pop	r11		
    8704:	30 41       	ret			

00008706 <random_init>:
    8706:	b0 12 9a a9 	call	#0xa99a	
    870a:	30 41       	ret			

0000870c <ringbuf_init>:
    870c:	8f 4e 00 00 	mov	r14,	0(r15)	;0x0000(r15)
    8710:	7d 53       	add.b	#-1,	r13	;r3 As==11
    8712:	cf 4d 02 00 	mov.b	r13,	2(r15)	;0x0002(r15)
    8716:	cf 43 03 00 	mov.b	#0,	3(r15)	;r3 As==00, 0x0003(r15)
    871a:	cf 43 04 00 	mov.b	#0,	4(r15)	;r3 As==00, 0x0004(r15)
    871e:	30 41       	ret			

00008720 <ringbuf_put>:
    8720:	0b 12       	push	r11		
    8722:	5c 4f 03 00 	mov.b	3(r15),	r12	;0x0003(r15)
    8726:	5d 4f 04 00 	mov.b	4(r15),	r13	;0x0004(r15)
    872a:	0b 4c       	mov	r12,	r11	
    872c:	0b 8d       	sub	r13,	r11	
    872e:	0d 4b       	mov	r11,	r13	
    8730:	5b 4f 02 00 	mov.b	2(r15),	r11	;0x0002(r15)
    8734:	0d fb       	and	r11,	r13	
    8736:	4d 9b       	cmp.b	r11,	r13	
    8738:	0c 24       	jz	$+26     	;abs 0x8752
    873a:	2c 5f       	add	@r15,	r12	
    873c:	cc 4e 00 00 	mov.b	r14,	0(r12)	;0x0000(r12)
    8740:	5e 4f 03 00 	mov.b	3(r15),	r14	;0x0003(r15)
    8744:	5e 53       	inc.b	r14		
    8746:	5e ff 02 00 	and.b	2(r15),	r14	;0x0002(r15)
    874a:	cf 4e 03 00 	mov.b	r14,	3(r15)	;0x0003(r15)
    874e:	1f 43       	mov	#1,	r15	;r3 As==01
    8750:	01 3c       	jmp	$+4      	;abs 0x8754
    8752:	0f 43       	clr	r15		
    8754:	3b 41       	pop	r11		
    8756:	30 41       	ret			

00008758 <ringbuf_get>:
    8758:	1b 15       	pushm	#2,	r11	
    875a:	5b 4f 04 00 	mov.b	4(r15),	r11	;0x0004(r15)
    875e:	5c 4f 02 00 	mov.b	2(r15),	r12	;0x0002(r15)
    8762:	5e 4f 03 00 	mov.b	3(r15),	r14	;0x0003(r15)
    8766:	4d 4b       	mov.b	r11,	r13	
    8768:	0e 8d       	sub	r13,	r14	
    876a:	4a 4c       	mov.b	r12,	r10	
    876c:	0e ba       	bit	r10,	r14	
    876e:	08 24       	jz	$+18     	;abs 0x8780
    8770:	2d 5f       	add	@r15,	r13	
    8772:	6e 4d       	mov.b	@r13,	r14	
    8774:	5b 53       	inc.b	r11		
    8776:	4b fc       	and.b	r12,	r11	
    8778:	cf 4b 04 00 	mov.b	r11,	4(r15)	;0x0004(r15)
    877c:	0f 4e       	mov	r14,	r15	
    877e:	01 3c       	jmp	$+4      	;abs 0x8782
    8780:	3f 43       	mov	#-1,	r15	;r3 As==11
    8782:	1a 17       	popm	#2,	r11	
    8784:	30 41       	ret			

00008786 <debug_print_msg>:
    8786:	4b 15       	pushm	#5,	r11	
    8788:	08 4c       	mov	r12,	r8	
    878a:	09 4d       	mov	r13,	r9	
    878c:	0a 4e       	mov	r14,	r10	
    878e:	0b 4f       	mov	r15,	r11	
    8790:	3f 40 20 1c 	mov	#7200,	r15	;#0x1c20
    8794:	b0 12 8e 86 	call	#0x868e	
    8798:	07 4f       	mov	r15,	r7	
    879a:	0f 93       	tst	r15		
    879c:	32 24       	jz	$+102    	;abs 0x8802
    879e:	0c 48       	mov	r8,	r12	
    87a0:	0d 49       	mov	r9,	r13	
    87a2:	0e 4a       	mov	r10,	r14	
    87a4:	0f 4b       	mov	r11,	r15	
    87a6:	8c 10       	swpb	r12		
    87a8:	8d 10       	swpb	r13		
    87aa:	4c ed       	xor.b	r13,	r12	
    87ac:	0c ed       	xor	r13,	r12	
    87ae:	8e 10       	swpb	r14		
    87b0:	4d ee       	xor.b	r14,	r13	
    87b2:	0d ee       	xor	r14,	r13	
    87b4:	8f 10       	swpb	r15		
    87b6:	4e ef       	xor.b	r15,	r14	
    87b8:	0e ef       	xor	r15,	r14	
    87ba:	4f 4f       	mov.b	r15,	r15	
    87bc:	78 40 07 00 	mov.b	#7,	r8	;#0x0007
    87c0:	12 c3       	clrc			
    87c2:	0f 10       	rrc	r15		
    87c4:	0e 10       	rrc	r14		
    87c6:	0d 10       	rrc	r13		
    87c8:	0c 10       	rrc	r12		
    87ca:	78 53       	add.b	#-1,	r8	;r3 As==11
    87cc:	f9 23       	jnz	$-12     	;abs 0x87c0
    87ce:	87 4c 02 00 	mov	r12,	2(r7)	;0x0002(r7)
    87d2:	87 4d 04 00 	mov	r13,	4(r7)	;0x0004(r7)
    87d6:	d7 41 0c 00 	mov.b	12(r1),	6(r7)	;0x000c(r1), 0x0006(r7)
    87da:	06 00 
    87dc:	3d 40 4f 00 	mov	#79,	r13	;#0x004f
    87e0:	1e 41 0e 00 	mov	14(r1),	r14	;0x000e(r1)
    87e4:	0f 47       	mov	r7,	r15	
    87e6:	3f 50 07 00 	add	#7,	r15	;#0x0007
    87ea:	b0 12 f6 9e 	call	#0x9ef6	
    87ee:	0e 47       	mov	r7,	r14	
    87f0:	3f 40 26 1d 	mov	#7462,	r15	;#0x1d26
    87f4:	b0 12 22 86 	call	#0x8622	
    87f8:	3f 40 0a 1c 	mov	#7178,	r15	;#0x1c0a
    87fc:	b0 12 74 85 	call	#0x8574	
    8800:	02 3c       	jmp	$+6      	;abs 0x8806
    8802:	d2 43 25 1d 	mov.b	#1,	&0x1d25	;r3 As==01
    8806:	47 17       	popm	#5,	r11	
    8808:	30 41       	ret			

0000880a <debug_print_msg_now>:
    880a:	0b 12       	push	r11		
    880c:	0b 4f       	mov	r15,	r11	
    880e:	0f 93       	tst	r15		
    8810:	0e 24       	jz	$+30     	;abs 0x882e
    8812:	5f 43       	mov.b	#1,	r15	;r3 As==01
    8814:	b0 12 40 9d 	call	#0x9d40	
    8818:	0b 12       	push	r11		
    881a:	b0 12 36 a0 	call	#0xa036	
    881e:	21 53       	incd	r1		
    8820:	3f 40 dc a9 	mov	#-22052,r15	;#0xa9dc
    8824:	b0 12 24 a9 	call	#0xa924	
    8828:	4f 43       	clr.b	r15		
    882a:	b0 12 40 9d 	call	#0x9d40	
    882e:	3b 41       	pop	r11		
    8830:	30 41       	ret			

00008832 <process_thread_debug_print_process>:
    8832:	1b 15       	pushm	#2,	r11	
    8834:	0a 4f       	mov	r15,	r10	
    8836:	2f 4f       	mov	@r15,	r15	
    8838:	0f 93       	tst	r15		
    883a:	04 24       	jz	$+10     	;abs 0x8844
    883c:	3f 90 64 00 	cmp	#100,	r15	;#0x0064
    8840:	96 20       	jnz	$+302    	;abs 0x896e
    8842:	28 3c       	jmp	$+82     	;abs 0x8894
    8844:	3f 40 20 1c 	mov	#7200,	r15	;#0x1c20
    8848:	b0 12 58 86 	call	#0x8658	
    884c:	3f 40 26 1d 	mov	#7462,	r15	;#0x1d26
    8850:	b0 12 d2 85 	call	#0x85d2	
    8854:	5f 43       	mov.b	#1,	r15	;r3 As==01
    8856:	b0 12 40 9d 	call	#0x9d40	
    885a:	b2 40 aa aa 	mov	#-21846,&0x2a00	;#0xaaaa
    885e:	00 2a 
    8860:	b2 40 aa aa 	mov	#-21846,&0x2a02	;#0xaaaa
    8864:	02 2a 
    8866:	b2 40 aa aa 	mov	#-21846,&0x2a04	;#0xaaaa
    886a:	04 2a 
    886c:	b2 40 aa aa 	mov	#-21846,&0x2a06	;#0xaaaa
    8870:	06 2a 
    8872:	30 12 ff 01 	push	#511		;#0x01ff
    8876:	30 12 de a9 	push	#-22050	;#0xa9de
    887a:	b0 12 36 a0 	call	#0xa036	
    887e:	21 52       	add	#4,	r1	;r2 As==10
    8880:	22 12       	push	#4		;r2 As==10
    8882:	30 12 0b aa 	push	#-22005	;#0xaa0b
    8886:	b0 12 36 a0 	call	#0xa036	
    888a:	21 52       	add	#4,	r1	;r2 As==10
    888c:	ba 40 64 00 	mov	#100,	0(r10)	;#0x0064, 0x0000(r10)
    8890:	00 00 
    8892:	72 3c       	jmp	$+230    	;abs 0x8978
    8894:	7e 90 82 ff 	cmp.b	#-126,	r14	;#0xff82
    8898:	6f 20       	jnz	$+224    	;abs 0x8978
    889a:	2c 3c       	jmp	$+90     	;abs 0x88f4
    889c:	3f 40 26 1d 	mov	#7462,	r15	;#0x1d26
    88a0:	b0 12 d8 85 	call	#0x85d8	
    88a4:	0b 4f       	mov	r15,	r11	
    88a6:	5f 43       	mov.b	#1,	r15	;r3 As==01
    88a8:	b0 12 40 9d 	call	#0x9d40	
    88ac:	cb 43 56 00 	mov.b	#0,	86(r11)	;r3 As==00, 0x0056(r11)
    88b0:	0f 4b       	mov	r11,	r15	
    88b2:	3f 50 07 00 	add	#7,	r15	;#0x0007
    88b6:	0f 12       	push	r15		
    88b8:	5e 4b 06 00 	mov.b	6(r11),	r14	;0x0006(r11)
    88bc:	5e 02       	rlam	#1,	r14	
    88be:	1e 12 14 1c 	push	7188(r14)	;0x1c14(r14)
    88c2:	1b 12 04 00 	push	4(r11)		;0x0004(r11)
    88c6:	1b 12 02 00 	push	2(r11)		;0x0002(r11)
    88ca:	30 12 0c 00 	push	#12		;#0x000c
    88ce:	30 12 3c aa 	push	#-21956	;#0xaa3c
    88d2:	b0 12 36 a0 	call	#0xa036	
    88d6:	31 50 0c 00 	add	#12,	r1	;#0x000c
    88da:	4f 43       	clr.b	r15		
    88dc:	b0 12 40 9d 	call	#0x9d40	
    88e0:	0e 4b       	mov	r11,	r14	
    88e2:	3f 40 26 1d 	mov	#7462,	r15	;#0x1d26
    88e6:	b0 12 ee 85 	call	#0x85ee	
    88ea:	0e 4b       	mov	r11,	r14	
    88ec:	3f 40 20 1c 	mov	#7200,	r15	;#0x1c20
    88f0:	b0 12 cc 86 	call	#0x86cc	
    88f4:	3f 40 26 1d 	mov	#7462,	r15	;#0x1d26
    88f8:	b0 12 48 86 	call	#0x8648	
    88fc:	0f 93       	tst	r15		
    88fe:	01 24       	jz	$+4      	;abs 0x8902
    8900:	cd 37       	jge	$-100    	;abs 0x889c
    8902:	c2 93 25 1d 	tst.b	&0x1d25	
    8906:	0c 24       	jz	$+26     	;abs 0x8920
    8908:	5f 43       	mov.b	#1,	r15	;r3 As==01
    890a:	b0 12 40 9d 	call	#0x9d40	
    890e:	3f 40 4e aa 	mov	#-21938,r15	;#0xaa4e
    8912:	b0 12 24 a9 	call	#0xa924	
    8916:	4f 43       	clr.b	r15		
    8918:	b0 12 40 9d 	call	#0x9d40	
    891c:	c2 43 25 1d 	mov.b	#0,	&0x1d25	;r3 As==00
    8920:	b2 90 aa aa 	cmp	#-21846,&0x2a00	;#0xaaaa
    8924:	00 2a 
    8926:	0c 20       	jnz	$+26     	;abs 0x8940
    8928:	b2 90 aa aa 	cmp	#-21846,&0x2a02	;#0xaaaa
    892c:	02 2a 
    892e:	08 20       	jnz	$+18     	;abs 0x8940
    8930:	b2 90 aa aa 	cmp	#-21846,&0x2a04	;#0xaaaa
    8934:	04 2a 
    8936:	04 20       	jnz	$+10     	;abs 0x8940
    8938:	b2 90 aa aa 	cmp	#-21846,&0x2a06	;#0xaaaa
    893c:	06 2a 
    893e:	a6 27       	jz	$-178    	;abs 0x888c
    8940:	30 12 7e aa 	push	#-21890	;#0xaa7e
    8944:	30 12 50 00 	push	#80		;#0x0050
    8948:	30 12 b0 20 	push	#8368		;#0x20b0
    894c:	b0 12 ca a0 	call	#0xa0ca	
    8950:	31 50 06 00 	add	#6,	r1	;#0x0006
    8954:	3f 40 b0 20 	mov	#8368,	r15	;#0x20b0
    8958:	b0 12 0a 88 	call	#0x880a	
    895c:	5f 42 5c 01 	mov.b	&0x015c,r15	
    8960:	3f f0 7f 00 	and	#127,	r15	;#0x007f
    8964:	3f 50 00 5a 	add	#23040,	r15	;#0x5a00
    8968:	82 4f 5c 01 	mov	r15,	&0x015c	
    896c:	ff 3f       	jmp	$+0      	;abs 0x896c
    896e:	8a 43 00 00 	mov	#0,	0(r10)	;r3 As==00, 0x0000(r10)
    8972:	7f 40 03 00 	mov.b	#3,	r15	;#0x0003
    8976:	01 3c       	jmp	$+4      	;abs 0x897a
    8978:	5f 43       	mov.b	#1,	r15	;r3 As==01
    897a:	1a 17       	popm	#2,	r11	
    897c:	30 41       	ret			

0000897e <debug_print_init>:
    897e:	12 12 0c 1c 	push	&0x1c0c	
    8982:	30 12 a3 aa 	push	#-21853	;#0xaaa3
    8986:	30 12 50 00 	push	#80		;#0x0050
    898a:	30 12 b0 20 	push	#8368		;#0x20b0
    898e:	b0 12 ca a0 	call	#0xa0ca	
    8992:	31 52       	add	#8,	r1	;r2 As==11
    8994:	3f 40 b0 20 	mov	#8368,	r15	;#0x20b0
    8998:	b0 12 0a 88 	call	#0x880a	
    899c:	0e 43       	clr	r14		
    899e:	3f 40 0a 1c 	mov	#7178,	r15	;#0x1c0a
    89a2:	b0 12 42 85 	call	#0x8542	
    89a6:	30 41       	ret			

000089a8 <process_thread_serial_line_process>:
    89a8:	0b 12       	push	r11		
    89aa:	0b 4f       	mov	r15,	r11	
    89ac:	2f 4f       	mov	@r15,	r15	
    89ae:	3f 90 67 00 	cmp	#103,	r15	;#0x0067
    89b2:	0b 24       	jz	$+24     	;abs 0x89ca
    89b4:	3f 90 79 00 	cmp	#121,	r15	;#0x0079
    89b8:	39 24       	jz	$+116    	;abs 0x8a2c
    89ba:	0f 93       	tst	r15		
    89bc:	3b 20       	jnz	$+120    	;abs 0x8a34
    89be:	b0 12 14 84 	call	#0x8414	
    89c2:	c2 4f 00 21 	mov.b	r15,	&0x2100	
    89c6:	82 43 94 1e 	mov	#0,	&0x1e94	;r3 As==00
    89ca:	3f 40 8e 1e 	mov	#7822,	r15	;#0x1e8e
    89ce:	b0 12 58 87 	call	#0x8758	
    89d2:	3f 93       	cmp	#-1,	r15	;r3 As==11
    89d4:	04 20       	jnz	$+10     	;abs 0x89de
    89d6:	bb 40 67 00 	mov	#103,	0(r11)	;#0x0067, 0x0000(r11)
    89da:	00 00 
    89dc:	30 3c       	jmp	$+98     	;abs 0x8a3e
    89de:	1e 42 94 1e 	mov	&0x1e94,r14	
    89e2:	3f 90 0a 00 	cmp	#10,	r15	;#0x000a
    89e6:	09 24       	jz	$+20     	;abs 0x89fa
    89e8:	3e 90 7f 00 	cmp	#127,	r14	;#0x007f
    89ec:	ee 37       	jge	$-34     	;abs 0x89ca
    89ee:	ce 4f 96 1e 	mov.b	r15,	7830(r14);0x1e96(r14)
    89f2:	1e 53       	inc	r14		
    89f4:	82 4e 94 1e 	mov	r14,	&0x1e94	
    89f8:	e8 3f       	jmp	$-46     	;abs 0x89ca
    89fa:	ce 43 96 1e 	mov.b	#0,	7830(r14);r3 As==00, 0x1e96(r14)
    89fe:	1e 53       	inc	r14		
    8a00:	82 4e 94 1e 	mov	r14,	&0x1e94	
    8a04:	3d 40 96 1e 	mov	#7830,	r13	;#0x1e96
    8a08:	5e 42 00 21 	mov.b	&0x2100,r14	
    8a0c:	0f 43       	clr	r15		
    8a0e:	b0 12 ec 84 	call	#0x84ec	
    8a12:	0d 43       	clr	r13		
    8a14:	7e 40 85 ff 	mov.b	#-123,	r14	;#0xff85
    8a18:	1f 42 54 1c 	mov	&0x1c54,r15	
    8a1c:	b0 12 ec 84 	call	#0x84ec	
    8a20:	0f 93       	tst	r15		
    8a22:	d1 23       	jnz	$-92     	;abs 0x89c6
    8a24:	bb 40 79 00 	mov	#121,	0(r11)	;#0x0079, 0x0000(r11)
    8a28:	00 00 
    8a2a:	09 3c       	jmp	$+20     	;abs 0x8a3e
    8a2c:	7e 90 85 ff 	cmp.b	#-123,	r14	;#0xff85
    8a30:	06 20       	jnz	$+14     	;abs 0x8a3e
    8a32:	c9 3f       	jmp	$-108    	;abs 0x89c6
    8a34:	8b 43 00 00 	mov	#0,	0(r11)	;r3 As==00, 0x0000(r11)
    8a38:	7f 40 03 00 	mov.b	#3,	r15	;#0x0003
    8a3c:	01 3c       	jmp	$+4      	;abs 0x8a40
    8a3e:	5f 43       	mov.b	#1,	r15	;r3 As==01
    8a40:	3b 41       	pop	r11		
    8a42:	30 41       	ret			

00008a44 <serial_line_input_byte>:
    8a44:	7f 90 0d 00 	cmp.b	#13,	r15	;#0x000d
    8a48:	20 24       	jz	$+66     	;abs 0x8a8a
    8a4a:	c2 93 8c 1e 	tst.b	&0x1e8c	
    8a4e:	0a 20       	jnz	$+22     	;abs 0x8a64
    8a50:	4e 4f       	mov.b	r15,	r14	
    8a52:	3f 40 8e 1e 	mov	#7822,	r15	;#0x1e8e
    8a56:	b0 12 20 87 	call	#0x8720	
    8a5a:	0f 93       	tst	r15		
    8a5c:	10 20       	jnz	$+34     	;abs 0x8a7e
    8a5e:	d2 43 8c 1e 	mov.b	#1,	&0x1e8c	;r3 As==01
    8a62:	0d 3c       	jmp	$+28     	;abs 0x8a7e
    8a64:	7f 90 0a 00 	cmp.b	#10,	r15	;#0x000a
    8a68:	0a 20       	jnz	$+22     	;abs 0x8a7e
    8a6a:	7e 40 0a 00 	mov.b	#10,	r14	;#0x000a
    8a6e:	3f 40 8e 1e 	mov	#7822,	r15	;#0x1e8e
    8a72:	b0 12 20 87 	call	#0x8720	
    8a76:	0f 93       	tst	r15		
    8a78:	02 24       	jz	$+6      	;abs 0x8a7e
    8a7a:	c2 43 8c 1e 	mov.b	#0,	&0x1e8c	;r3 As==00
    8a7e:	3f 40 28 1c 	mov	#7208,	r15	;#0x1c28
    8a82:	b0 12 74 85 	call	#0x8574	
    8a86:	1f 43       	mov	#1,	r15	;r3 As==01
    8a88:	30 41       	ret			
    8a8a:	0f 43       	clr	r15		
    8a8c:	30 41       	ret			

00008a8e <serial_line_init>:
    8a8e:	7d 40 80 ff 	mov.b	#-128,	r13	;#0xff80
    8a92:	3e 40 16 1f 	mov	#7958,	r14	;#0x1f16
    8a96:	3f 40 8e 1e 	mov	#7822,	r15	;#0x1e8e
    8a9a:	b0 12 0c 87 	call	#0x870c	
    8a9e:	0e 43       	clr	r14		
    8aa0:	3f 40 28 1c 	mov	#7208,	r15	;#0x1c28
    8aa4:	b0 12 42 85 	call	#0x8542	
    8aa8:	30 41       	ret			

00008aaa <nullmac_init>:
    8aaa:	4f 43       	clr.b	r15		
    8aac:	b0 12 5c 95 	call	#0x955c	
    8ab0:	1f 43       	mov	#1,	r15	;r3 As==01
    8ab2:	b0 12 62 95 	call	#0x9562	
    8ab6:	b0 12 bc 92 	call	#0x92bc	
    8aba:	b0 12 2a 93 	call	#0x932a	
    8abe:	30 41       	ret			

00008ac0 <rf1a_cb_rx_started>:
    8ac0:	30 41       	ret			

00008ac2 <rf1a_cb_tx_started>:
    8ac2:	30 41       	ret			

00008ac4 <rf1a_cb_header_received>:
    8ac4:	30 41       	ret			

00008ac6 <rf1a_cb_rx_ended>:
    8ac6:	4b 15       	pushm	#5,	r11	
    8ac8:	49 4d       	mov.b	r13,	r9	
    8aca:	28 4e       	mov	@r14,	r8	
    8acc:	1b 4e 02 00 	mov	2(r14),	r11	;0x0002(r14)
    8ad0:	0a 4e       	mov	r14,	r10	
    8ad2:	2a 52       	add	#4,	r10	;r2 As==10
    8ad4:	3b 93       	cmp	#-1,	r11	;r3 As==11
    8ad6:	1e 20       	jnz	$+62     	;abs 0x8b14
    8ad8:	b0 12 50 93 	call	#0x9350	
    8adc:	4b 4f       	mov.b	r15,	r11	
    8ade:	b0 12 36 93 	call	#0x9336	
    8ae2:	4e 4b       	mov.b	r11,	r14	
    8ae4:	0e 12       	push	r14		
    8ae6:	8f 11       	sxt	r15		
    8ae8:	0f 12       	push	r15		
    8aea:	0a 12       	push	r10		
    8aec:	08 12       	push	r8		
    8aee:	49 49       	mov.b	r9,	r9	
    8af0:	09 12       	push	r9		
    8af2:	30 12 f5 aa 	push	#-21771	;#0xaaf5
    8af6:	30 12 50 00 	push	#80		;#0x0050
    8afa:	30 12 b0 20 	push	#8368		;#0x20b0
    8afe:	b0 12 ca a0 	call	#0xa0ca	
    8b02:	31 50 10 00 	add	#16,	r1	;#0x0010
    8b06:	b0 12 a8 98 	call	#0x98a8	
    8b0a:	30 12 b0 20 	push	#8368		;#0x20b0
    8b0e:	30 12 49 00 	push	#73		;#0x0049
    8b12:	33 3c       	jmp	$+104    	;abs 0x8b7a
    8b14:	b0 12 50 93 	call	#0x9350	
    8b18:	47 4f       	mov.b	r15,	r7	
    8b1a:	b0 12 36 93 	call	#0x9336	
    8b1e:	4e 47       	mov.b	r7,	r14	
    8b20:	0e 12       	push	r14		
    8b22:	8f 11       	sxt	r15		
    8b24:	0f 12       	push	r15		
    8b26:	0b 12       	push	r11		
    8b28:	08 12       	push	r8		
    8b2a:	4d 49       	mov.b	r9,	r13	
    8b2c:	0d 12       	push	r13		
    8b2e:	30 12 43 ab 	push	#-21693	;#0xab43
    8b32:	30 12 50 00 	push	#80		;#0x0050
    8b36:	30 12 b0 20 	push	#8368		;#0x20b0
    8b3a:	b0 12 ca a0 	call	#0xa0ca	
    8b3e:	31 50 10 00 	add	#16,	r1	;#0x0010
    8b42:	b0 12 a8 98 	call	#0x98a8	
    8b46:	30 12 b0 20 	push	#8368		;#0x20b0
    8b4a:	30 12 49 00 	push	#73		;#0x0049
    8b4e:	b0 12 86 87 	call	#0x8786	
    8b52:	21 52       	add	#4,	r1	;r2 As==10
    8b54:	3b 90 0c 00 	cmp	#12,	r11	;#0x000c
    8b58:	13 20       	jnz	$+40     	;abs 0x8b80
    8b5a:	0a 12       	push	r10		
    8b5c:	30 12 91 ab 	push	#-21615	;#0xab91
    8b60:	30 12 50 00 	push	#80		;#0x0050
    8b64:	30 12 b0 20 	push	#8368		;#0x20b0
    8b68:	b0 12 ca a0 	call	#0xa0ca	
    8b6c:	31 52       	add	#8,	r1	;r2 As==11
    8b6e:	b0 12 a8 98 	call	#0x98a8	
    8b72:	30 12 b0 20 	push	#8368		;#0x20b0
    8b76:	30 12 03 00 	push	#3		;#0x0003
    8b7a:	b0 12 86 87 	call	#0x8786	
    8b7e:	21 52       	add	#4,	r1	;r2 As==10
    8b80:	b0 12 2a 93 	call	#0x932a	
    8b84:	47 17       	popm	#5,	r11	
    8b86:	30 41       	ret			

00008b88 <rf1a_cb_tx_ended>:
    8b88:	30 12 a8 ab 	push	#-21592	;#0xaba8
    8b8c:	30 12 50 00 	push	#80		;#0x0050
    8b90:	30 12 b0 20 	push	#8368		;#0x20b0
    8b94:	b0 12 ca a0 	call	#0xa0ca	
    8b98:	31 50 06 00 	add	#6,	r1	;#0x0006
    8b9c:	b0 12 a8 98 	call	#0x98a8	
    8ba0:	30 12 b0 20 	push	#8368		;#0x20b0
    8ba4:	30 12 49 00 	push	#73		;#0x0049
    8ba8:	b0 12 86 87 	call	#0x8786	
    8bac:	21 52       	add	#4,	r1	;r2 As==10
    8bae:	b0 12 2a 93 	call	#0x932a	
    8bb2:	30 41       	ret			

00008bb4 <rf1a_cb_rx_failed>:
    8bb4:	30 12 b5 ab 	push	#-21579	;#0xabb5
    8bb8:	30 12 50 00 	push	#80		;#0x0050
    8bbc:	30 12 b0 20 	push	#8368		;#0x20b0
    8bc0:	b0 12 ca a0 	call	#0xa0ca	
    8bc4:	31 50 06 00 	add	#6,	r1	;#0x0006
    8bc8:	b0 12 a8 98 	call	#0x98a8	
    8bcc:	30 12 b0 20 	push	#8368		;#0x20b0
    8bd0:	30 12 45 00 	push	#69		;#0x0045
    8bd4:	b0 12 86 87 	call	#0x8786	
    8bd8:	21 52       	add	#4,	r1	;r2 As==10
    8bda:	b0 12 da 92 	call	#0x92da	
    8bde:	b0 12 2a 93 	call	#0x932a	
    8be2:	30 41       	ret			

00008be4 <rf1a_cb_rx_tx_error>:
    8be4:	30 12 df ab 	push	#-21537	;#0xabdf
    8be8:	30 12 50 00 	push	#80		;#0x0050
    8bec:	30 12 b0 20 	push	#8368		;#0x20b0
    8bf0:	b0 12 ca a0 	call	#0xa0ca	
    8bf4:	31 50 06 00 	add	#6,	r1	;#0x0006
    8bf8:	b0 12 a8 98 	call	#0x98a8	
    8bfc:	30 12 b0 20 	push	#8368		;#0x20b0
    8c00:	30 12 45 00 	push	#69		;#0x0045
    8c04:	b0 12 86 87 	call	#0x8786	
    8c08:	21 52       	add	#4,	r1	;r2 As==10
    8c0a:	b0 12 da 92 	call	#0x92da	
    8c0e:	b0 12 02 93 	call	#0x9302	
    8c12:	b0 12 2a 93 	call	#0x932a	
    8c16:	30 41       	ret			

00008c18 <print_processes>:
    8c18:	0b 12       	push	r11		
    8c1a:	0b 4f       	mov	r15,	r11	
    8c1c:	5f 43       	mov.b	#1,	r15	;r3 As==01
    8c1e:	b0 12 40 9d 	call	#0x9d40	
    8c22:	30 12 fb ab 	push	#-21509	;#0xabfb
    8c26:	b0 12 36 a0 	call	#0xa036	
    8c2a:	21 53       	incd	r1		
    8c2c:	08 3c       	jmp	$+18     	;abs 0x8c3e
    8c2e:	1f 12 02 00 	push	2(r15)		;0x0002(r15)
    8c32:	30 12 04 ac 	push	#-21500	;#0xac04
    8c36:	b0 12 36 a0 	call	#0xa036	
    8c3a:	21 52       	add	#4,	r1	;r2 As==10
    8c3c:	2b 53       	incd	r11		
    8c3e:	2f 4b       	mov	@r11,	r15	
    8c40:	0f 93       	tst	r15		
    8c42:	f5 23       	jnz	$-20     	;abs 0x8c2e
    8c44:	3f 40 0a ac 	mov	#-21494,r15	;#0xac0a
    8c48:	b0 12 24 a9 	call	#0xa924	
    8c4c:	3b 41       	pop	r11		
    8c4e:	30 41       	ret			

00008c50 <print_device_info>:
    8c50:	92 42 9e 01 	mov	&0x019e,&0x1f96	
    8c54:	96 1f 
    8c56:	82 43 98 1f 	mov	#0,	&0x1f98	;r3 As==00
    8c5a:	30 12 0c ac 	push	#-21492	;#0xac0c
    8c5e:	b0 12 36 a0 	call	#0xa036	
    8c62:	21 53       	incd	r1		
    8c64:	1e 42 96 1f 	mov	&0x1f96,r14	
    8c68:	1f 42 98 1f 	mov	&0x1f98,r15	
    8c6c:	2e 93       	cmp	#2,	r14	;r3 As==10
    8c6e:	05 20       	jnz	$+12     	;abs 0x8c7a
    8c70:	0f 93       	tst	r15		
    8c72:	68 20       	jnz	$+210    	;abs 0x8d44
    8c74:	30 12 1f ac 	push	#-21473	;#0xac1f
    8c78:	67 3c       	jmp	$+208    	;abs 0x8d48
    8c7a:	2e 92       	cmp	#4,	r14	;r2 As==10
    8c7c:	05 20       	jnz	$+12     	;abs 0x8c88
    8c7e:	0f 93       	tst	r15		
    8c80:	61 20       	jnz	$+196    	;abs 0x8d44
    8c82:	30 12 23 ac 	push	#-21469	;#0xac23
    8c86:	60 3c       	jmp	$+194    	;abs 0x8d48
    8c88:	3e 90 06 00 	cmp	#6,	r14	;#0x0006
    8c8c:	05 20       	jnz	$+12     	;abs 0x8c98
    8c8e:	0f 93       	tst	r15		
    8c90:	59 20       	jnz	$+180    	;abs 0x8d44
    8c92:	30 12 2d ac 	push	#-21459	;#0xac2d
    8c96:	58 3c       	jmp	$+178    	;abs 0x8d48
    8c98:	3e 90 0a 00 	cmp	#10,	r14	;#0x000a
    8c9c:	05 20       	jnz	$+12     	;abs 0x8ca8
    8c9e:	0f 93       	tst	r15		
    8ca0:	51 20       	jnz	$+164    	;abs 0x8d44
    8ca2:	30 12 3a ac 	push	#-21446	;#0xac3a
    8ca6:	50 3c       	jmp	$+162    	;abs 0x8d48
    8ca8:	3e 90 0c 00 	cmp	#12,	r14	;#0x000c
    8cac:	03 24       	jz	$+8      	;abs 0x8cb4
    8cae:	3e 90 0e 00 	cmp	#14,	r14	;#0x000e
    8cb2:	05 20       	jnz	$+12     	;abs 0x8cbe
    8cb4:	0f 93       	tst	r15		
    8cb6:	46 20       	jnz	$+142    	;abs 0x8d44
    8cb8:	30 12 4d ac 	push	#-21427	;#0xac4d
    8cbc:	45 3c       	jmp	$+140    	;abs 0x8d48
    8cbe:	3e 90 10 00 	cmp	#16,	r14	;#0x0010
    8cc2:	03 24       	jz	$+8      	;abs 0x8cca
    8cc4:	3e 90 12 00 	cmp	#18,	r14	;#0x0012
    8cc8:	05 20       	jnz	$+12     	;abs 0x8cd4
    8cca:	0f 93       	tst	r15		
    8ccc:	3b 20       	jnz	$+120    	;abs 0x8d44
    8cce:	30 12 51 ac 	push	#-21423	;#0xac51
    8cd2:	3a 3c       	jmp	$+118    	;abs 0x8d48
    8cd4:	3e 90 14 00 	cmp	#20,	r14	;#0x0014
    8cd8:	05 20       	jnz	$+12     	;abs 0x8ce4
    8cda:	0f 93       	tst	r15		
    8cdc:	33 20       	jnz	$+104    	;abs 0x8d44
    8cde:	30 12 55 ac 	push	#-21419	;#0xac55
    8ce2:	32 3c       	jmp	$+102    	;abs 0x8d48
    8ce4:	3e 90 16 00 	cmp	#22,	r14	;#0x0016
    8ce8:	05 20       	jnz	$+12     	;abs 0x8cf4
    8cea:	0f 93       	tst	r15		
    8cec:	2b 20       	jnz	$+88     	;abs 0x8d44
    8cee:	30 12 62 ac 	push	#-21406	;#0xac62
    8cf2:	2a 3c       	jmp	$+86     	;abs 0x8d48
    8cf4:	3e 90 18 00 	cmp	#24,	r14	;#0x0018
    8cf8:	05 20       	jnz	$+12     	;abs 0x8d04
    8cfa:	0f 93       	tst	r15		
    8cfc:	23 20       	jnz	$+72     	;abs 0x8d44
    8cfe:	30 12 73 ac 	push	#-21389	;#0xac73
    8d02:	22 3c       	jmp	$+70     	;abs 0x8d48
    8d04:	3e 90 1a 00 	cmp	#26,	r14	;#0x001a
    8d08:	05 20       	jnz	$+12     	;abs 0x8d14
    8d0a:	0f 93       	tst	r15		
    8d0c:	1b 20       	jnz	$+56     	;abs 0x8d44
    8d0e:	30 12 8f ac 	push	#-21361	;#0xac8f
    8d12:	1a 3c       	jmp	$+54     	;abs 0x8d48
    8d14:	3e 90 1c 00 	cmp	#28,	r14	;#0x001c
    8d18:	05 20       	jnz	$+12     	;abs 0x8d24
    8d1a:	0f 93       	tst	r15		
    8d1c:	13 20       	jnz	$+40     	;abs 0x8d44
    8d1e:	30 12 94 ac 	push	#-21356	;#0xac94
    8d22:	12 3c       	jmp	$+38     	;abs 0x8d48
    8d24:	3e 90 1e 00 	cmp	#30,	r14	;#0x001e
    8d28:	05 20       	jnz	$+12     	;abs 0x8d34
    8d2a:	0f 93       	tst	r15		
    8d2c:	0b 20       	jnz	$+24     	;abs 0x8d44
    8d2e:	30 12 9a ac 	push	#-21350	;#0xac9a
    8d32:	0a 3c       	jmp	$+22     	;abs 0x8d48
    8d34:	3e 90 20 00 	cmp	#32,	r14	;#0x0020
    8d38:	05 20       	jnz	$+12     	;abs 0x8d44
    8d3a:	0f 93       	tst	r15		
    8d3c:	03 20       	jnz	$+8      	;abs 0x8d44
    8d3e:	30 12 b0 ac 	push	#-21328	;#0xacb0
    8d42:	02 3c       	jmp	$+6      	;abs 0x8d48
    8d44:	30 12 b7 ac 	push	#-21321	;#0xacb7
    8d48:	b0 12 36 a0 	call	#0xa036	
    8d4c:	21 53       	incd	r1		
    8d4e:	b0 12 66 8e 	call	#0x8e66	
    8d52:	8f 10       	swpb	r15		
    8d54:	4f 4f       	mov.b	r15,	r15	
    8d56:	5f 07       	rrum	#2,	r15	
    8d58:	0f 12       	push	r15		
    8d5a:	30 12 20 00 	push	#32		;#0x0020
    8d5e:	22 12       	push	#4		;r2 As==10
    8d60:	30 12 bf ac 	push	#-21313	;#0xacbf
    8d64:	b0 12 36 a0 	call	#0xa036	
    8d68:	31 52       	add	#8,	r1	;r2 As==11
    8d6a:	3f 40 f4 ac 	mov	#-21260,r15	;#0xacf4
    8d6e:	b0 12 24 a9 	call	#0xa924	
    8d72:	30 41       	ret			

00008d74 <clock_init>:
    8d74:	6f 43       	mov.b	#2,	r15	;r3 As==10
    8d76:	b0 12 da 8f 	call	#0x8fda	
    8d7a:	b2 f0 fd ff 	and	#-3,	&0x0100	;#0xfffd
    8d7e:	00 01 
    8d80:	b2 f0 ff fe 	and	#-257,	&0x016c	;#0xfeff
    8d84:	6c 01 
    8d86:	b2 40 20 00 	mov	#32,	&0x0166	;#0x0020
    8d8a:	66 01 
    8d8c:	b2 40 44 02 	mov	#580,	&0x0168	;#0x0244
    8d90:	68 01 
    8d92:	b2 f0 f4 ff 	and	#-12,	&0x016e	;#0xfff4
    8d96:	6e 01 
    8d98:	b2 f0 fd ff 	and	#-3,	&0x0102	;#0xfffd
    8d9c:	02 01 
    8d9e:	a2 b3 02 01 	bit	#2,	&0x0102	;r3 As==10
    8da2:	f7 23       	jnz	$-16     	;abs 0x8d92
    8da4:	32 d0 40 00 	bis	#64,	r2	;#0x0040
    8da8:	82 43 60 01 	mov	#0,	&0x0160	;r3 As==00
    8dac:	b2 40 60 00 	mov	#96,	&0x0162	;#0x0060
    8db0:	62 01 
    8db2:	b2 40 8c 01 	mov	#396,	&0x0164	;#0x018c
    8db6:	64 01 
    8db8:	32 c0 40 00 	bic	#64,	r2	;#0x0040
    8dbc:	3e 40 03 00 	mov	#3,	r14	;#0x0003
    8dc0:	3f 40 f4 10 	mov	#4340,	r15	;#0x10f4
    8dc4:	1f 83       	dec	r15		
    8dc6:	fe 23       	jnz	$-2      	;abs 0x8dc4
    8dc8:	1e 83       	dec	r14		
    8dca:	fc 23       	jnz	$-6      	;abs 0x8dc4
    8dcc:	03 43       	nop			
    8dce:	b2 40 55 02 	mov	#597,	&0x0168	;#0x0255
    8dd2:	68 01 
    8dd4:	b2 40 31 00 	mov	#49,	&0x016a	;#0x0031
    8dd8:	6a 01 
    8dda:	b2 f0 f4 ff 	and	#-12,	&0x016e	;#0xfff4
    8dde:	6e 01 
    8de0:	b2 f0 fd ff 	and	#-3,	&0x0102	;#0xfffd
    8de4:	02 01 
    8de6:	a2 b3 02 01 	bit	#2,	&0x0102	;r3 As==10
    8dea:	f7 23       	jnz	$-16     	;abs 0x8dda
    8dec:	b2 40 2a 00 	mov	#42,	&0x0100	;#0x002a
    8df0:	00 01 
    8df2:	30 41       	ret			

00008df4 <unmi_interrupt>:
    8df4:	0f 12       	push	r15		
    8df6:	f2 d0 80 ff 	bis.b	#-128,	&0x0202	;#0xff80
    8dfa:	02 02 
    8dfc:	1f 42 9a 01 	mov	&0x019a,r15	
    8e00:	2f 92       	cmp	#4,	r15	;r2 As==10
    8e02:	06 24       	jz	$+14     	;abs 0x8e10
    8e04:	3f 90 06 00 	cmp	#6,	r15	;#0x0006
    8e08:	0d 24       	jz	$+28     	;abs 0x8e24
    8e0a:	2f 93       	cmp	#2,	r15	;r3 As==10
    8e0c:	0c 20       	jnz	$+26     	;abs 0x8e26
    8e0e:	ff 3f       	jmp	$+0      	;abs 0x8e0e
    8e10:	b2 f0 f4 ff 	and	#-12,	&0x016e	;#0xfff4
    8e14:	6e 01 
    8e16:	b2 f0 fd ff 	and	#-3,	&0x0102	;#0xfffd
    8e1a:	02 01 
    8e1c:	a2 b3 02 01 	bit	#2,	&0x0102	;r3 As==10
    8e20:	f7 23       	jnz	$-16     	;abs 0x8e10
    8e22:	01 3c       	jmp	$+4      	;abs 0x8e26
    8e24:	ff 3f       	jmp	$+0      	;abs 0x8e24
    8e26:	f2 f0 7f 00 	and.b	#127,	&0x0202	;#0x007f
    8e2a:	02 02 
    8e2c:	3f 41       	pop	r15		
    8e2e:	00 13       	reti			

00008e30 <dma_interrupt>:
    8e30:	3f 15       	pushm	#4,	r15	
    8e32:	b2 b2 10 05 	bit	#8,	&0x0510	;r2 As==11
    8e36:	04 24       	jz	$+10     	;abs 0x8e40
    8e38:	b2 f0 f7 ff 	and	#-9,	&0x0510	;#0xfff7
    8e3c:	10 05 
    8e3e:	06 3c       	jmp	$+14     	;abs 0x8e4c
    8e40:	b2 b2 20 05 	bit	#8,	&0x0520	;r2 As==11
    8e44:	03 24       	jz	$+8      	;abs 0x8e4c
    8e46:	b2 f0 f7 ff 	and	#-9,	&0x0520	;#0xfff7
    8e4a:	20 05 
    8e4c:	b2 f0 ef ff 	and	#-17,	&0x0520	;#0xffef
    8e50:	20 05 
    8e52:	b2 f0 ef ff 	and	#-17,	&0x0510	;#0xffef
    8e56:	10 05 
    8e58:	1f 42 9a 1f 	mov	&0x1f9a,r15	
    8e5c:	0f 93       	tst	r15		
    8e5e:	01 24       	jz	$+4      	;abs 0x8e62
    8e60:	8f 12       	call	r15		
    8e62:	3c 17       	popm	#4,	r15	
    8e64:	00 13       	reti			

00008e66 <flash_code_size>:
    8e66:	3f 40 fe ff 	mov	#-2,	r15	;#0xfffe
    8e6a:	01 3c       	jmp	$+4      	;abs 0x8e6e
    8e6c:	2f 83       	decd	r15		
    8e6e:	3f 90 00 80 	cmp	#-32768,r15	;#0x8000
    8e72:	03 24       	jz	$+8      	;abs 0x8e7a
    8e74:	bf 93 00 00 	cmp	#-1,	0(r15)	;r3 As==11, 0x0000(r15)
    8e78:	f9 27       	jz	$-12     	;abs 0x8e6c
    8e7a:	3f 50 02 80 	add	#-32766,r15	;#0x8002
    8e7e:	30 41       	ret			

00008e80 <SetVCoreUp>:
    8e80:	0b 12       	push	r11		
    8e82:	f2 40 a5 ff 	mov.b	#-91,	&0x0121	;#0xffa5
    8e86:	21 01 
    8e88:	1b 42 2e 01 	mov	&0x012e,r11	
    8e8c:	b2 f0 aa df 	and	#-8278,	&0x012e	;#0xdfaa
    8e90:	2e 01 
    8e92:	1c 42 24 01 	mov	&0x0124,r12	
    8e96:	b2 f0 cf ff 	and	#-49,	&0x012c	;#0xffcf
    8e9a:	2c 01 
    8e9c:	4d 4f       	mov.b	r15,	r13	
    8e9e:	3d d0 00 c0 	bis	#-16384,r13	;#0xc000
    8ea2:	82 4d 24 01 	mov	r13,	&0x0124	
    8ea6:	b2 b0 10 00 	bit	#16,	&0x012c	;#0x0010
    8eaa:	2c 01 
    8eac:	fc 27       	jz	$-6      	;abs 0x8ea6
    8eae:	b2 f0 ff f7 	and	#-2049,	&0x0124	;#0xf7ff
    8eb2:	24 01 
    8eb4:	b2 b0 20 00 	bit	#32,	&0x012c	;#0x0020
    8eb8:	2c 01 
    8eba:	12 24       	jz	$+38     	;abs 0x8ee0
    8ebc:	b2 f0 ef ff 	and	#-17,	&0x012c	;#0xffef
    8ec0:	2c 01 
    8ec2:	82 4c 24 01 	mov	r12,	&0x0124	
    8ec6:	b2 b0 10 00 	bit	#16,	&0x012c	;#0x0010
    8eca:	2c 01 
    8ecc:	fc 27       	jz	$-6      	;abs 0x8ec6
    8ece:	b2 f0 88 ff 	and	#-120,	&0x012c	;#0xff88
    8ed2:	2c 01 
    8ed4:	82 4b 2e 01 	mov	r11,	&0x012e	
    8ed8:	c2 43 21 01 	mov.b	#0,	&0x0121	;r3 As==00
    8edc:	1f 43       	mov	#1,	r15	;r3 As==01
    8ede:	31 3c       	jmp	$+100    	;abs 0x8f42
    8ee0:	1c 42 24 01 	mov	&0x0124,r12	
    8ee4:	4e 4f       	mov.b	r15,	r14	
    8ee6:	8e 10       	swpb	r14		
    8ee8:	3c d0 00 04 	bis	#1024,	r12	;#0x0400
    8eec:	0c de       	bis	r14,	r12	
    8eee:	82 4c 24 01 	mov	r12,	&0x0124	
    8ef2:	82 4d 26 01 	mov	r13,	&0x0126	
    8ef6:	92 b3 2c 01 	bit	#1,	&0x012c	;r3 As==01
    8efa:	fd 27       	jz	$-4      	;abs 0x8ef6
    8efc:	b2 f0 f9 ff 	and	#-7,	&0x012c	;#0xfff9
    8f00:	2c 01 
    8f02:	c2 4f 20 01 	mov.b	r15,	&0x0120	
    8f06:	a2 b3 2c 01 	bit	#2,	&0x012c	;r3 As==10
    8f0a:	03 24       	jz	$+8      	;abs 0x8f12
    8f0c:	a2 b2 2c 01 	bit	#4,	&0x012c	;r2 As==10
    8f10:	fd 27       	jz	$-4      	;abs 0x8f0c
    8f12:	b2 f0 fe ff 	and	#-2,	&0x012c	;#0xfffe
    8f16:	2c 01 
    8f18:	1f 42 26 01 	mov	&0x0126,r15	
    8f1c:	3f d0 00 04 	bis	#1024,	r15	;#0x0400
    8f20:	0f de       	bis	r14,	r15	
    8f22:	82 4f 26 01 	mov	r15,	&0x0126	
    8f26:	92 b3 2c 01 	bit	#1,	&0x012c	;r3 As==01
    8f2a:	fd 27       	jz	$-4      	;abs 0x8f26
    8f2c:	b2 f0 ff f7 	and	#-2049,	&0x0126	;#0xf7ff
    8f30:	26 01 
    8f32:	b2 f0 88 ff 	and	#-120,	&0x012c	;#0xff88
    8f36:	2c 01 
    8f38:	82 4b 2e 01 	mov	r11,	&0x012e	
    8f3c:	c2 43 21 01 	mov.b	#0,	&0x0121	;r3 As==00
    8f40:	0f 43       	clr	r15		
    8f42:	3b 41       	pop	r11		
    8f44:	30 41       	ret			

00008f46 <SetVCoreDown>:
    8f46:	f2 40 a5 ff 	mov.b	#-91,	&0x0121	;#0xffa5
    8f4a:	21 01 
    8f4c:	1d 42 2e 01 	mov	&0x012e,r13	
    8f50:	b2 f0 aa df 	and	#-8278,	&0x012e	;#0xdfaa
    8f54:	2e 01 
    8f56:	b2 f0 cc ff 	and	#-52,	&0x012c	;#0xffcc
    8f5a:	2c 01 
    8f5c:	4e 4f       	mov.b	r15,	r14	
    8f5e:	3e d0 00 c0 	bis	#-16384,r14	;#0xc000
    8f62:	82 4e 24 01 	mov	r14,	&0x0124	
    8f66:	82 4e 26 01 	mov	r14,	&0x0126	
    8f6a:	b2 b0 10 00 	bit	#16,	&0x012c	;#0x0010
    8f6e:	2c 01 
    8f70:	fc 27       	jz	$-6      	;abs 0x8f6a
    8f72:	92 b3 2c 01 	bit	#1,	&0x012c	;r3 As==01
    8f76:	f9 27       	jz	$-12     	;abs 0x8f6a
    8f78:	c2 4f 20 01 	mov.b	r15,	&0x0120	
    8f7c:	b2 f0 ee cf 	and	#-12306,&0x012c	;#0xcfee
    8f80:	2c 01 
    8f82:	1e 42 24 01 	mov	&0x0124,r14	
    8f86:	4f 4f       	mov.b	r15,	r15	
    8f88:	8f 10       	swpb	r15		
    8f8a:	3e d0 00 0c 	bis	#3072,	r14	;#0x0c00
    8f8e:	0e df       	bis	r15,	r14	
    8f90:	82 4e 24 01 	mov	r14,	&0x0124	
    8f94:	1e 42 26 01 	mov	&0x0126,r14	
    8f98:	3e d0 00 0c 	bis	#3072,	r14	;#0x0c00
    8f9c:	0e df       	bis	r15,	r14	
    8f9e:	82 4e 26 01 	mov	r14,	&0x0126	
    8fa2:	b2 b0 10 00 	bit	#16,	&0x012c	;#0x0010
    8fa6:	2c 01 
    8fa8:	fc 27       	jz	$-6      	;abs 0x8fa2
    8faa:	92 b3 2c 01 	bit	#1,	&0x012c	;r3 As==01
    8fae:	f9 27       	jz	$-12     	;abs 0x8fa2
    8fb0:	b2 f0 ff f7 	and	#-2049,	&0x0124	;#0xf7ff
    8fb4:	24 01 
    8fb6:	b2 f0 ff f7 	and	#-2049,	&0x0126	;#0xf7ff
    8fba:	26 01 
    8fbc:	b2 f0 88 ff 	and	#-120,	&0x012c	;#0xff88
    8fc0:	2c 01 
    8fc2:	82 4d 2e 01 	mov	r13,	&0x012e	
    8fc6:	c2 43 21 01 	mov.b	#0,	&0x0121	;r3 As==00
    8fca:	1e 42 2c 01 	mov	&0x012c,r14	
    8fce:	3e f0 20 00 	and	#32,	r14	;#0x0020
    8fd2:	1f 43       	mov	#1,	r15	;r3 As==01
    8fd4:	01 20       	jnz	$+4      	;abs 0x8fd8
    8fd6:	0f 43       	clr	r15		
    8fd8:	30 41       	ret			

00008fda <SetVCore>:
    8fda:	1b 15       	pushm	#2,	r11	
    8fdc:	1b 42 20 01 	mov	&0x0120,r11	
    8fe0:	3b f0 03 00 	and	#3,	r11	;#0x0003
    8fe4:	0e 43       	clr	r14		
    8fe6:	0a 4f       	mov	r15,	r10	
    8fe8:	3a f0 03 00 	and	#3,	r10	;#0x0003
    8fec:	0c 3c       	jmp	$+26     	;abs 0x9006
    8fee:	0b 9a       	cmp	r10,	r11	
    8ff0:	05 2c       	jc	$+12     	;abs 0x8ffc
    8ff2:	1b 53       	inc	r11		
    8ff4:	4f 4b       	mov.b	r11,	r15	
    8ff6:	b0 12 80 8e 	call	#0x8e80	
    8ffa:	04 3c       	jmp	$+10     	;abs 0x9004
    8ffc:	3b 53       	add	#-1,	r11	;r3 As==11
    8ffe:	4f 4b       	mov.b	r11,	r15	
    9000:	b0 12 46 8f 	call	#0x8f46	
    9004:	0e 4f       	mov	r15,	r14	
    9006:	0a 9b       	cmp	r11,	r10	
    9008:	04 24       	jz	$+10     	;abs 0x9012
    900a:	0e 93       	tst	r14		
    900c:	f0 27       	jz	$-30     	;abs 0x8fee
    900e:	0a 9b       	cmp	r11,	r10	
    9010:	ee 2b       	jnc	$-34     	;abs 0x8fee
    9012:	0f 4e       	mov	r14,	r15	
    9014:	1a 17       	popm	#2,	r11	
    9016:	30 41       	ret			

00009018 <read_byte_from_register>:
    9018:	b2 b0 10 00 	bit	#16,	&0x0f02	;#0x0010
    901c:	02 0f 
    901e:	fc 27       	jz	$-6      	;abs 0x9018
    9020:	7f 90 2f 00 	cmp.b	#47,	r15	;#0x002f
    9024:	03 28       	jnc	$+8      	;abs 0x902c
    9026:	7f 90 3e 00 	cmp.b	#62,	r15	;#0x003e
    902a:	03 20       	jnz	$+8      	;abs 0x9032
    902c:	7f d0 80 ff 	bis.b	#-128,	r15	;#0xff80
    9030:	02 3c       	jmp	$+6      	;abs 0x9036
    9032:	7f d0 c0 ff 	bis.b	#-64,	r15	;#0xffc0
    9036:	c2 4f 13 0f 	mov.b	r15,	&0x0f13	
    903a:	b2 b0 80 00 	bit	#128,	&0x0f02	;#0x0080
    903e:	02 0f 
    9040:	fc 27       	jz	$-6      	;abs 0x903a
    9042:	5f 42 20 0f 	mov.b	&0x0f20,r15	
    9046:	30 41       	ret			

00009048 <write_byte_to_register>:
    9048:	b2 b0 10 00 	bit	#16,	&0x0f02	;#0x0010
    904c:	02 0f 
    904e:	fc 27       	jz	$-6      	;abs 0x9048
    9050:	c2 4f 11 0f 	mov.b	r15,	&0x0f11	
    9054:	c2 4e 10 0f 	mov.b	r14,	&0x0f10	
    9058:	30 41       	ret			

0000905a <set_register_field>:
    905a:	4b 15       	pushm	#5,	r11	
    905c:	49 4f       	mov.b	r15,	r9	
    905e:	47 4e       	mov.b	r14,	r7	
    9060:	48 4c       	mov.b	r12,	r8	
    9062:	1b 43       	mov	#1,	r11	;r3 As==01
    9064:	7d f0 0f 00 	and.b	#15,	r13	;#0x000f
    9068:	4d 93       	tst.b	r13		
    906a:	03 24       	jz	$+8      	;abs 0x9072
    906c:	0b 5b       	rla	r11		
    906e:	7d 53       	add.b	#-1,	r13	;r3 As==11
    9070:	fb 3f       	jmp	$-8      	;abs 0x9068
    9072:	7b 53       	add.b	#-1,	r11	;r3 As==11
    9074:	4b 97       	cmp.b	r7,	r11	
    9076:	1b 28       	jnc	$+56     	;abs 0x90ae
    9078:	4f 49       	mov.b	r9,	r15	
    907a:	b0 12 18 90 	call	#0x9018	
    907e:	4b 4b       	mov.b	r11,	r11	
    9080:	4a 48       	mov.b	r8,	r10	
    9082:	7a f0 0f 00 	and.b	#15,	r10	;#0x000f
    9086:	4a 93       	tst.b	r10		
    9088:	03 24       	jz	$+8      	;abs 0x9090
    908a:	0b 5b       	rla	r11		
    908c:	7a 53       	add.b	#-1,	r10	;r3 As==11
    908e:	fb 3f       	jmp	$-8      	;abs 0x9086
    9090:	4f cb       	bic.b	r11,	r15	
    9092:	4d 47       	mov.b	r7,	r13	
    9094:	4c 48       	mov.b	r8,	r12	
    9096:	7c f0 0f 00 	and.b	#15,	r12	;#0x000f
    909a:	4c 93       	tst.b	r12		
    909c:	03 24       	jz	$+8      	;abs 0x90a4
    909e:	0d 5d       	rla	r13		
    90a0:	7c 53       	add.b	#-1,	r12	;r3 As==11
    90a2:	fb 3f       	jmp	$-8      	;abs 0x909a
    90a4:	4e 4f       	mov.b	r15,	r14	
    90a6:	4e dd       	bis.b	r13,	r14	
    90a8:	4f 49       	mov.b	r9,	r15	
    90aa:	b0 12 48 90 	call	#0x9048	
    90ae:	47 17       	popm	#5,	r11	
    90b0:	30 41       	ret			

000090b2 <strobe>:
    90b2:	2b 15       	pushm	#3,	r11	
    90b4:	4b 4f       	mov.b	r15,	r11	
    90b6:	4a 4e       	mov.b	r14,	r10	
    90b8:	b2 f0 bf ff 	and	#-65,	&0x0f02	;#0xffbf
    90bc:	02 0f 
    90be:	b2 b0 10 00 	bit	#16,	&0x0f02	;#0x0010
    90c2:	02 0f 
    90c4:	fc 27       	jz	$-6      	;abs 0x90be
    90c6:	1f 42 6c 01 	mov	&0x016c,r15	
    90ca:	3f b0 00 01 	bit	#256,	r15	;#0x0100
    90ce:	0f 24       	jz	$+32     	;abs 0x90ee
    90d0:	7b 90 32 00 	cmp.b	#50,	r11	;#0x0032
    90d4:	0c 24       	jz	$+26     	;abs 0x90ee
    90d6:	7b 90 39 00 	cmp.b	#57,	r11	;#0x0039
    90da:	09 24       	jz	$+20     	;abs 0x90ee
    90dc:	7b 90 38 00 	cmp.b	#56,	r11	;#0x0038
    90e0:	06 24       	jz	$+14     	;abs 0x90ee
    90e2:	7b 90 30 00 	cmp.b	#48,	r11	;#0x0030
    90e6:	03 24       	jz	$+8      	;abs 0x90ee
    90e8:	7b 90 3d 00 	cmp.b	#61,	r11	;#0x003d
    90ec:	0d 20       	jnz	$+28     	;abs 0x9108
    90ee:	0e 4a       	mov	r10,	r14	
    90f0:	1e f3       	and	#1,	r14	;r3 As==01
    90f2:	0e 11       	rra	r14		
    90f4:	0e 43       	clr	r14		
    90f6:	4e 10       	rrc.b	r14		
    90f8:	4e db       	bis.b	r11,	r14	
    90fa:	c2 4e 11 0f 	mov.b	r14,	&0x0f11	
    90fe:	7b 90 30 00 	cmp.b	#48,	r11	;#0x0030
    9102:	22 20       	jnz	$+70     	;abs 0x9148
    9104:	4f 43       	clr.b	r15		
    9106:	26 3c       	jmp	$+78     	;abs 0x9154
    9108:	4f 43       	clr.b	r15		
    910a:	b0 12 18 90 	call	#0x9018	
    910e:	49 4f       	mov.b	r15,	r9	
    9110:	7e 40 29 00 	mov.b	#41,	r14	;#0x0029
    9114:	4f 43       	clr.b	r15		
    9116:	b0 12 48 90 	call	#0x9048	
    911a:	0d 4a       	mov	r10,	r13	
    911c:	1d f3       	and	#1,	r13	;r3 As==01
    911e:	0d 11       	rra	r13		
    9120:	0d 43       	clr	r13		
    9122:	4d 10       	rrc.b	r13		
    9124:	4d db       	bis.b	r11,	r13	
    9126:	c2 4d 11 0f 	mov.b	r13,	&0x0f11	
    912a:	a2 b2 30 0f 	bit	#4,	&0x0f30	;r2 As==10
    912e:	08 24       	jz	$+18     	;abs 0x9140
    9130:	a2 b2 30 0f 	bit	#4,	&0x0f30	;r2 As==10
    9134:	fd 23       	jnz	$-4      	;abs 0x9130
    9136:	3d 40 17 15 	mov	#5399,	r13	;#0x1517
    913a:	1d 83       	dec	r13		
    913c:	fe 23       	jnz	$-2      	;abs 0x913a
    913e:	03 43       	nop			
    9140:	4e 49       	mov.b	r9,	r14	
    9142:	4f 43       	clr.b	r15		
    9144:	b0 12 48 90 	call	#0x9048	
    9148:	b2 b0 40 00 	bit	#64,	&0x0f02	;#0x0040
    914c:	02 0f 
    914e:	fc 27       	jz	$-6      	;abs 0x9148
    9150:	5f 42 21 0f 	mov.b	&0x0f21,r15	
    9154:	29 17       	popm	#3,	r11	
    9156:	30 41       	ret			

00009158 <write_data_to_register>:
    9158:	0d 93       	tst	r13		
    915a:	1b 24       	jz	$+56     	;abs 0x9192
    915c:	b2 b0 10 00 	bit	#16,	&0x0f02	;#0x0010
    9160:	02 0f 
    9162:	fc 27       	jz	$-6      	;abs 0x915c
    9164:	7f d0 40 00 	bis.b	#64,	r15	;#0x0040
    9168:	4f 4f       	mov.b	r15,	r15	
    916a:	8f 10       	swpb	r15		
    916c:	6c 4e       	mov.b	@r14,	r12	
    916e:	0f 5c       	add	r12,	r15	
    9170:	82 4f 10 0f 	mov	r15,	&0x0f10	
    9174:	1f 43       	mov	#1,	r15	;r3 As==01
    9176:	09 3c       	jmp	$+20     	;abs 0x918a
    9178:	0c 4e       	mov	r14,	r12	
    917a:	0c 5f       	add	r15,	r12	
    917c:	e2 4c 10 0f 	mov.b	@r12,	&0x0f10	
    9180:	b2 b0 20 00 	bit	#32,	&0x0f02	;#0x0020
    9184:	02 0f 
    9186:	fc 27       	jz	$-6      	;abs 0x9180
    9188:	1f 53       	inc	r15		
    918a:	0f 9d       	cmp	r13,	r15	
    918c:	f5 23       	jnz	$-20     	;abs 0x9178
    918e:	5f 42 20 0f 	mov.b	&0x0f20,r15	
    9192:	30 41       	ret			

00009194 <read_bytes_from_rx_fifo>:
    9194:	3b 15       	pushm	#4,	r11	
    9196:	4b 4f       	mov.b	r15,	r11	
    9198:	5a 42 e7 1f 	mov.b	&0x1fe7,r10	
    919c:	4f 4a       	mov.b	r10,	r15	
    919e:	4e 4b       	mov.b	r11,	r14	
    91a0:	0f 5e       	add	r14,	r15	
    91a2:	5e 42 a0 1f 	mov.b	&0x1fa0,r14	
    91a6:	0e 9f       	cmp	r15,	r14	
    91a8:	46 38       	jl	$+142    	;abs 0x9236
    91aa:	4a 93       	tst.b	r10		
    91ac:	07 20       	jnz	$+16     	;abs 0x91bc
    91ae:	7f 40 3f 00 	mov.b	#63,	r15	;#0x003f
    91b2:	b0 12 18 90 	call	#0x9018	
    91b6:	c2 4f a4 1f 	mov.b	r15,	&0x1fa4	
    91ba:	7b 53       	add.b	#-1,	r11	;r3 As==11
    91bc:	4e 4b       	mov.b	r11,	r14	
    91be:	4f 4a       	mov.b	r10,	r15	
    91c0:	3f 50 a6 1f 	add	#8102,	r15	;#0x1fa6
    91c4:	0e 93       	tst	r14		
    91c6:	20 24       	jz	$+66     	;abs 0x9208
    91c8:	b2 b0 10 00 	bit	#16,	&0x0f02	;#0x0010
    91cc:	02 0f 
    91ce:	fc 27       	jz	$-6      	;abs 0x91c8
    91d0:	f2 43 13 0f 	mov.b	#-1,	&0x0f13	;r3 As==11
    91d4:	0d 43       	clr	r13		
    91d6:	09 4e       	mov	r14,	r9	
    91d8:	39 53       	add	#-1,	r9	;r3 As==11
    91da:	0b 3c       	jmp	$+24     	;abs 0x91f2
    91dc:	b2 b0 80 00 	bit	#128,	&0x0f02	;#0x0080
    91e0:	02 0f 
    91e2:	fc 27       	jz	$-6      	;abs 0x91dc
    91e4:	58 42 22 0f 	mov.b	&0x0f22,r8	
    91e8:	0c 4f       	mov	r15,	r12	
    91ea:	0c 5d       	add	r13,	r12	
    91ec:	cc 48 00 00 	mov.b	r8,	0(r12)	;0x0000(r12)
    91f0:	1d 53       	inc	r13		
    91f2:	0d 99       	cmp	r9,	r13	
    91f4:	f3 2b       	jnc	$-24     	;abs 0x91dc
    91f6:	b2 b0 80 00 	bit	#128,	&0x0f02	;#0x0080
    91fa:	02 0f 
    91fc:	fc 27       	jz	$-6      	;abs 0x91f6
    91fe:	5d 42 20 0f 	mov.b	&0x0f20,r13	
    9202:	0f 5e       	add	r14,	r15	
    9204:	cf 4d ff ff 	mov.b	r13,	-1(r15)	;0xffff(r15)
    9208:	4b 5a       	add.b	r10,	r11	
    920a:	c2 4b e7 1f 	mov.b	r11,	&0x1fe7	
    920e:	5f 42 a1 1f 	mov.b	&0x1fa1,r15	
    9212:	4f 93       	tst.b	r15		
    9214:	14 24       	jz	$+42     	;abs 0x923e
    9216:	c2 93 f0 1f 	tst.b	&0x1ff0	
    921a:	11 20       	jnz	$+36     	;abs 0x923e
    921c:	4b 9f       	cmp.b	r15,	r11	
    921e:	0f 28       	jnc	$+32     	;abs 0x923e
    9220:	5d 42 a4 1f 	mov.b	&0x1fa4,r13	
    9224:	3e 40 a6 1f 	mov	#8102,	r14	;#0x1fa6
    9228:	3f 40 e8 1f 	mov	#8168,	r15	;#0x1fe8
    922c:	b0 12 c4 8a 	call	#0x8ac4	
    9230:	d2 43 f0 1f 	mov.b	#1,	&0x1ff0	;r3 As==01
    9234:	04 3c       	jmp	$+10     	;abs 0x923e
    9236:	3f 40 e8 1f 	mov	#8168,	r15	;#0x1fe8
    923a:	b0 12 e4 8b 	call	#0x8be4	
    923e:	38 17       	popm	#4,	r11	
    9240:	30 41       	ret			

00009242 <rf1a_reset>:
    9242:	5e 43       	mov.b	#1,	r14	;r3 As==01
    9244:	7f 40 30 00 	mov.b	#48,	r15	;#0x0030
    9248:	b0 12 b2 90 	call	#0x90b2	
    924c:	5e 43       	mov.b	#1,	r14	;r3 As==01
    924e:	7f 40 3d 00 	mov.b	#61,	r15	;#0x003d
    9252:	b0 12 b2 90 	call	#0x90b2	
    9256:	82 43 06 0f 	mov	#0,	&0x0f06	;r3 As==00
    925a:	c2 43 a1 1f 	mov.b	#0,	&0x1fa1	;r3 As==00
    925e:	92 43 a2 1f 	mov	#1,	&0x1fa2	;r3 As==01
    9262:	30 41       	ret			

00009264 <rf1a_set_tx_power>:
    9264:	0b 12       	push	r11		
    9266:	0b 4f       	mov	r15,	r11	
    9268:	3f 90 06 00 	cmp	#6,	r15	;#0x0006
    926c:	10 2c       	jc	$+34     	;abs 0x928e
    926e:	3d 40 06 00 	mov	#6,	r13	;#0x0006
    9272:	3e 40 f2 ad 	mov	#-21006,r14	;#0xadf2
    9276:	7f 40 3e 00 	mov.b	#62,	r15	;#0x003e
    927a:	b0 12 58 91 	call	#0x9158	
    927e:	4c 43       	clr.b	r12		
    9280:	7d 40 03 00 	mov.b	#3,	r13	;#0x0003
    9284:	4e 4b       	mov.b	r11,	r14	
    9286:	7f 40 22 00 	mov.b	#34,	r15	;#0x0022
    928a:	b0 12 5a 90 	call	#0x905a	
    928e:	3b 41       	pop	r11		
    9290:	30 41       	ret			

00009292 <rf1a_configure_gdo_signal>:
    9292:	7f 90 03 00 	cmp.b	#3,	r15	;#0x0003
    9296:	0b 2c       	jc	$+24     	;abs 0x92ae
    9298:	4d 4d       	mov.b	r13,	r13	
    929a:	5d 0e       	rlam	#4,	r13	
    929c:	5d 06       	rlam	#2,	r13	
    929e:	7e f0 3f 00 	and.b	#63,	r14	;#0x003f
    92a2:	4e dd       	bis.b	r13,	r14	
    92a4:	6d 43       	mov.b	#2,	r13	;r3 As==10
    92a6:	4d 8f       	sub.b	r15,	r13	
    92a8:	4f 4d       	mov.b	r13,	r15	
    92aa:	b0 12 48 90 	call	#0x9048	
    92ae:	30 41       	ret			

000092b0 <rf1a_get_status_byte>:
    92b0:	5e 43       	mov.b	#1,	r14	;r3 As==01
    92b2:	7f 40 3d 00 	mov.b	#61,	r15	;#0x003d
    92b6:	b0 12 b2 90 	call	#0x90b2	
    92ba:	30 41       	ret			

000092bc <rf1a_go_to_idle>:
    92bc:	5e 43       	mov.b	#1,	r14	;r3 As==01
    92be:	7f 40 36 00 	mov.b	#54,	r15	;#0x0036
    92c2:	03 3c       	jmp	$+8      	;abs 0x92ca
    92c4:	5e 43       	mov.b	#1,	r14	;r3 As==01
    92c6:	7f 40 3d 00 	mov.b	#61,	r15	;#0x003d
    92ca:	b0 12 b2 90 	call	#0x90b2	
    92ce:	3f b0 70 00 	bit	#112,	r15	;#0x0070
    92d2:	f8 23       	jnz	$-14     	;abs 0x92c4
    92d4:	92 43 a2 1f 	mov	#1,	&0x1fa2	;r3 As==01
    92d8:	30 41       	ret			

000092da <rf1a_flush_rx_fifo>:
    92da:	5e 43       	mov.b	#1,	r14	;r3 As==01
    92dc:	7f 40 36 00 	mov.b	#54,	r15	;#0x0036
    92e0:	03 3c       	jmp	$+8      	;abs 0x92e8
    92e2:	5e 43       	mov.b	#1,	r14	;r3 As==01
    92e4:	7f 40 3d 00 	mov.b	#61,	r15	;#0x003d
    92e8:	b0 12 b2 90 	call	#0x90b2	
    92ec:	3f b0 70 00 	bit	#112,	r15	;#0x0070
    92f0:	f8 23       	jnz	$-14     	;abs 0x92e2
    92f2:	92 43 a2 1f 	mov	#1,	&0x1fa2	;r3 As==01
    92f6:	5e 43       	mov.b	#1,	r14	;r3 As==01
    92f8:	7f 40 3a 00 	mov.b	#58,	r15	;#0x003a
    92fc:	b0 12 b2 90 	call	#0x90b2	
    9300:	30 41       	ret			

00009302 <rf1a_flush_tx_fifo>:
    9302:	5e 43       	mov.b	#1,	r14	;r3 As==01
    9304:	7f 40 36 00 	mov.b	#54,	r15	;#0x0036
    9308:	03 3c       	jmp	$+8      	;abs 0x9310
    930a:	5e 43       	mov.b	#1,	r14	;r3 As==01
    930c:	7f 40 3d 00 	mov.b	#61,	r15	;#0x003d
    9310:	b0 12 b2 90 	call	#0x90b2	
    9314:	3f b0 70 00 	bit	#112,	r15	;#0x0070
    9318:	f8 23       	jnz	$-14     	;abs 0x930a
    931a:	92 43 a2 1f 	mov	#1,	&0x1fa2	;r3 As==01
    931e:	4e 43       	clr.b	r14		
    9320:	7f 40 3b 00 	mov.b	#59,	r15	;#0x003b
    9324:	b0 12 b2 90 	call	#0x90b2	
    9328:	30 41       	ret			

0000932a <rf1a_start_rx>:
    932a:	5e 43       	mov.b	#1,	r14	;r3 As==01
    932c:	7f 40 34 00 	mov.b	#52,	r15	;#0x0034
    9330:	b0 12 b2 90 	call	#0x90b2	
    9334:	30 41       	ret			

00009336 <rf1a_get_last_packet_rssi>:
    9336:	5f 42 a4 1f 	mov.b	&0x1fa4,r15	
    933a:	5f 4f a6 1f 	mov.b	8102(r15),r15	;0x1fa6(r15)
    933e:	4f 93       	tst.b	r15		
    9340:	01 34       	jge	$+4      	;abs 0x9344
    9342:	5f 53       	inc.b	r15		
    9344:	4f 4f       	mov.b	r15,	r15	
    9346:	8f 11       	sxt	r15		
    9348:	5f 03       	rrum	#1,	r15	
    934a:	7f 50 b6 ff 	add.b	#-74,	r15	;#0xffb6
    934e:	30 41       	ret			

00009350 <rf1a_get_last_packet_lqi>:
    9350:	5f 42 a4 1f 	mov.b	&0x1fa4,r15	
    9354:	5f 4f a7 1f 	mov.b	8103(r15),r15	;0x1fa7(r15)
    9358:	7f f0 7f 00 	and.b	#127,	r15	;#0x007f
    935c:	30 41       	ret			

0000935e <rf1a_set_maximum_packet_length>:
    935e:	0b 12       	push	r11		
    9360:	4b 4f       	mov.b	r15,	r11	
    9362:	4c 43       	clr.b	r12		
    9364:	6d 43       	mov.b	#2,	r13	;r3 As==10
    9366:	5e 43       	mov.b	#1,	r14	;r3 As==01
    9368:	7f 42       	mov.b	#8,	r15	;r2 As==11
    936a:	b0 12 5a 90 	call	#0x905a	
    936e:	7b 90 40 00 	cmp.b	#64,	r11	;#0x0040
    9372:	04 28       	jnc	$+10     	;abs 0x937c
    9374:	f2 40 3f 00 	mov.b	#63,	&0x1fa0	;#0x003f
    9378:	a0 1f 
    937a:	02 3c       	jmp	$+6      	;abs 0x9380
    937c:	c2 4b a0 1f 	mov.b	r11,	&0x1fa0	
    9380:	5e 42 a0 1f 	mov.b	&0x1fa0,r14	
    9384:	7f 40 06 00 	mov.b	#6,	r15	;#0x0006
    9388:	b0 12 48 90 	call	#0x9048	
    938c:	3b 41       	pop	r11		
    938e:	30 41       	ret			

00009390 <rf1a_set_channel>:
    9390:	4e 4f       	mov.b	r15,	r14	
    9392:	7f 40 0a 00 	mov.b	#10,	r15	;#0x000a
    9396:	b0 12 48 90 	call	#0x9048	
    939a:	30 41       	ret			

0000939c <rf1a_init>:
    939c:	b0 12 42 92 	call	#0x9242	
    93a0:	82 43 9c 1f 	mov	#0,	&0x1f9c	;r3 As==00
    93a4:	82 43 9e 1f 	mov	#0,	&0x1f9e	;r3 As==00
    93a8:	f2 40 3f 00 	mov.b	#63,	&0x1fa0	;#0x003f
    93ac:	a0 1f 
    93ae:	7e 42       	mov.b	#8,	r14	;r2 As==11
    93b0:	7f 40 0b 00 	mov.b	#11,	r15	;#0x000b
    93b4:	b0 12 48 90 	call	#0x9048	
    93b8:	7e 40 10 00 	mov.b	#16,	r14	;#0x0010
    93bc:	7f 40 0d 00 	mov.b	#13,	r15	;#0x000d
    93c0:	b0 12 48 90 	call	#0x9048	
    93c4:	7e 40 b1 ff 	mov.b	#-79,	r14	;#0xffb1
    93c8:	7f 40 0e 00 	mov.b	#14,	r15	;#0x000e
    93cc:	b0 12 48 90 	call	#0x9048	
    93d0:	7e 40 3b 00 	mov.b	#59,	r14	;#0x003b
    93d4:	7f 40 0f 00 	mov.b	#15,	r15	;#0x000f
    93d8:	b0 12 48 90 	call	#0x9048	
    93dc:	7e 40 2d 00 	mov.b	#45,	r14	;#0x002d
    93e0:	7f 40 10 00 	mov.b	#16,	r15	;#0x0010
    93e4:	b0 12 48 90 	call	#0x9048	
    93e8:	7e 40 3b 00 	mov.b	#59,	r14	;#0x003b
    93ec:	7f 40 11 00 	mov.b	#17,	r15	;#0x0011
    93f0:	b0 12 48 90 	call	#0x9048	
    93f4:	7e 40 13 00 	mov.b	#19,	r14	;#0x0013
    93f8:	7f 40 12 00 	mov.b	#18,	r15	;#0x0012
    93fc:	b0 12 48 90 	call	#0x9048	
    9400:	7e 40 62 00 	mov.b	#98,	r14	;#0x0062
    9404:	7f 40 15 00 	mov.b	#21,	r15	;#0x0015
    9408:	b0 12 48 90 	call	#0x9048	
    940c:	7e 40 1d 00 	mov.b	#29,	r14	;#0x001d
    9410:	7f 40 19 00 	mov.b	#25,	r15	;#0x0019
    9414:	b0 12 48 90 	call	#0x9048	
    9418:	7e 40 1c 00 	mov.b	#28,	r14	;#0x001c
    941c:	7f 40 1a 00 	mov.b	#26,	r15	;#0x001a
    9420:	b0 12 48 90 	call	#0x9048	
    9424:	7e 40 c7 ff 	mov.b	#-57,	r14	;#0xffc7
    9428:	7f 40 1b 00 	mov.b	#27,	r15	;#0x001b
    942c:	b0 12 48 90 	call	#0x9048	
    9430:	4e 43       	clr.b	r14		
    9432:	7f 40 1c 00 	mov.b	#28,	r15	;#0x001c
    9436:	b0 12 48 90 	call	#0x9048	
    943a:	7e 40 b0 ff 	mov.b	#-80,	r14	;#0xffb0
    943e:	7f 40 1d 00 	mov.b	#29,	r15	;#0x001d
    9442:	b0 12 48 90 	call	#0x9048	
    9446:	7e 40 fb ff 	mov.b	#-5,	r14	;#0xfffb
    944a:	7f 40 20 00 	mov.b	#32,	r15	;#0x0020
    944e:	b0 12 48 90 	call	#0x9048	
    9452:	7e 40 b6 ff 	mov.b	#-74,	r14	;#0xffb6
    9456:	7f 40 21 00 	mov.b	#33,	r15	;#0x0021
    945a:	b0 12 48 90 	call	#0x9048	
    945e:	7e 40 ea ff 	mov.b	#-22,	r14	;#0xffea
    9462:	7f 40 23 00 	mov.b	#35,	r15	;#0x0023
    9466:	b0 12 48 90 	call	#0x9048	
    946a:	7e 40 2a 00 	mov.b	#42,	r14	;#0x002a
    946e:	7f 40 24 00 	mov.b	#36,	r15	;#0x0024
    9472:	b0 12 48 90 	call	#0x9048	
    9476:	4e 43       	clr.b	r14		
    9478:	7f 40 25 00 	mov.b	#37,	r15	;#0x0025
    947c:	b0 12 48 90 	call	#0x9048	
    9480:	7e 40 1f 00 	mov.b	#31,	r14	;#0x001f
    9484:	7f 40 26 00 	mov.b	#38,	r15	;#0x0026
    9488:	b0 12 48 90 	call	#0x9048	
    948c:	7e 40 09 00 	mov.b	#9,	r14	;#0x0009
    9490:	7f 40 2d 00 	mov.b	#45,	r15	;#0x002d
    9494:	b0 12 48 90 	call	#0x9048	
    9498:	3f 40 03 00 	mov	#3,	r15	;#0x0003
    949c:	b0 12 64 92 	call	#0x9264	
    94a0:	7f 40 05 00 	mov.b	#5,	r15	;#0x0005
    94a4:	b0 12 90 93 	call	#0x9390	
    94a8:	7f 40 3f 00 	mov.b	#63,	r15	;#0x003f
    94ac:	b0 12 5e 93 	call	#0x935e	
    94b0:	7e 40 03 00 	mov.b	#3,	r14	;#0x0003
    94b4:	7f 40 03 00 	mov.b	#3,	r15	;#0x0003
    94b8:	b0 12 48 90 	call	#0x9048	
    94bc:	4d 43       	clr.b	r13		
    94be:	7e 40 29 00 	mov.b	#41,	r14	;#0x0029
    94c2:	4f 43       	clr.b	r15		
    94c4:	b0 12 92 92 	call	#0x9292	
    94c8:	4d 43       	clr.b	r13		
    94ca:	7e 40 07 00 	mov.b	#7,	r14	;#0x0007
    94ce:	5f 43       	mov.b	#1,	r15	;r3 As==01
    94d0:	b0 12 92 92 	call	#0x9292	
    94d4:	4d 43       	clr.b	r13		
    94d6:	7e 40 06 00 	mov.b	#6,	r14	;#0x0006
    94da:	6f 43       	mov.b	#2,	r15	;r3 As==10
    94dc:	b0 12 92 92 	call	#0x9292	
    94e0:	b2 40 00 d9 	mov	#-9984,	&0x034a	;#0xd900
    94e4:	4a 03 
    94e6:	b2 f0 f7 ff 	and	#-9,	&0x0f34	;#0xfff7
    94ea:	34 0f 
    94ec:	b2 f0 f7 ff 	and	#-9,	&0x0f32	;#0xfff7
    94f0:	32 0f 
    94f2:	b2 d2 36 0f 	bis	#8,	&0x0f36	;r2 As==11
    94f6:	b2 f0 7f ff 	and	#-129,	&0x0f34	;#0xff7f
    94fa:	34 0f 
    94fc:	b2 f0 7f ff 	and	#-129,	&0x0f32	;#0xff7f
    9500:	32 0f 
    9502:	b2 d0 80 00 	bis	#128,	&0x0f36	;#0x0080
    9506:	36 0f 
    9508:	b2 f0 ff fe 	and	#-257,	&0x0f34	;#0xfeff
    950c:	34 0f 
    950e:	b2 f0 ff fe 	and	#-257,	&0x0f32	;#0xfeff
    9512:	32 0f 
    9514:	b2 d0 00 01 	bis	#256,	&0x0f36	;#0x0100
    9518:	36 0f 
    951a:	b2 f0 ff fd 	and	#-513,	&0x0f34	;#0xfdff
    951e:	34 0f 
    9520:	b2 f0 ff fd 	and	#-513,	&0x0f32	;#0xfdff
    9524:	32 0f 
    9526:	b2 d0 00 02 	bis	#512,	&0x0f36	;#0x0200
    952a:	36 0f 
    952c:	f2 40 a5 ff 	mov.b	#-91,	&0x0121	;#0xffa5
    9530:	21 01 
    9532:	f2 d0 80 ff 	bis.b	#-128,	&0x0120	;#0xff80
    9536:	20 01 
    9538:	c2 43 21 01 	mov.b	#0,	&0x0121	;r3 As==00
    953c:	30 12 3f 00 	push	#63		;#0x003f
    9540:	03 12       	push	#0		;r3 As==00
    9542:	30 12 65 03 	push	#869		;#0x0365
    9546:	30 12 05 00 	push	#5		;#0x0005
    954a:	12 12 38 1c 	push	&0x1c38	
    954e:	30 12 87 ad 	push	#-21113	;#0xad87
    9552:	b0 12 36 a0 	call	#0xa036	
    9556:	31 50 0c 00 	add	#12,	r1	;#0x000c
    955a:	30 41       	ret			

0000955c <rf1a_set_header_len_rx>:
    955c:	c2 4f a1 1f 	mov.b	r15,	&0x1fa1	
    9560:	30 41       	ret			

00009562 <rf1a_set_calibration_mode>:
    9562:	6c 42       	mov.b	#4,	r12	;r2 As==10
    9564:	6d 43       	mov.b	#2,	r13	;r3 As==10
    9566:	4e 4f       	mov.b	r15,	r14	
    9568:	7f 40 18 00 	mov.b	#24,	r15	;#0x0018
    956c:	b0 12 5a 90 	call	#0x905a	
    9570:	30 41       	ret			

00009572 <radio_interrupt>:
    9572:	bf 15       	pushm	#12,	r15	
    9574:	b0 12 36 98 	call	#0x9836	
    9578:	82 4c e8 1f 	mov	r12,	&0x1fe8	
    957c:	82 4d ea 1f 	mov	r13,	&0x1fea	
    9580:	82 4e ec 1f 	mov	r14,	&0x1fec	
    9584:	82 4f ee 1f 	mov	r15,	&0x1fee	
    9588:	18 42 38 0f 	mov	&0x0f38,r8	
    958c:	38 82       	sub	#8,	r8	;r2 As==11
    958e:	38 90 0d 00 	cmp	#13,	r8	;#0x000d
    9592:	d5 2c       	jc	$+428    	;abs 0x973e
    9594:	58 02       	rlam	#1,	r8	
    9596:	10 48 c4 ad 	br	-21052(r8)	;0xadc4(r8)
    959a:	7f 40 0f 00 	mov.b	#15,	r15	;#0x000f
    959e:	b0 12 94 91 	call	#0x9194	
    95a2:	cd 3c       	jmp	$+412    	;abs 0x973e
    95a4:	58 42 e7 1f 	mov.b	&0x1fe7,r8	
    95a8:	48 93       	tst.b	r8		
    95aa:	c9 24       	jz	$+404    	;abs 0x973e
    95ac:	78 90 10 00 	cmp.b	#16,	r8	;#0x0010
    95b0:	14 28       	jnc	$+42     	;abs 0x95da
    95b2:	5b 42 e6 1f 	mov.b	&0x1fe6,r11	
    95b6:	4e 4b       	mov.b	r11,	r14	
    95b8:	3d 40 0f 00 	mov	#15,	r13	;#0x000f
    95bc:	3e 50 a6 1f 	add	#8102,	r14	;#0x1fa6
    95c0:	7f 40 3f 00 	mov.b	#63,	r15	;#0x003f
    95c4:	b0 12 58 91 	call	#0x9158	
    95c8:	7b 50 0f 00 	add.b	#15,	r11	;#0x000f
    95cc:	c2 4b e6 1f 	mov.b	r11,	&0x1fe6	
    95d0:	78 50 f1 ff 	add.b	#-15,	r8	;#0xfff1
    95d4:	c2 48 e7 1f 	mov.b	r8,	&0x1fe7	
    95d8:	b2 3c       	jmp	$+358    	;abs 0x973e
    95da:	5e 42 e6 1f 	mov.b	&0x1fe6,r14	
    95de:	4d 48       	mov.b	r8,	r13	
    95e0:	3e 50 a6 1f 	add	#8102,	r14	;#0x1fa6
    95e4:	7f 40 3f 00 	mov.b	#63,	r15	;#0x003f
    95e8:	b0 12 58 91 	call	#0x9158	
    95ec:	c2 43 e6 1f 	mov.b	#0,	&0x1fe6	;r3 As==00
    95f0:	c2 43 e7 1f 	mov.b	#0,	&0x1fe7	;r3 As==00
    95f4:	b2 f0 df ff 	and	#-33,	&0x0f36	;#0xffdf
    95f8:	36 0f 
    95fa:	1f 42 32 0f 	mov	&0x0f32,r15	
    95fe:	3f f0 df ff 	and	#-33,	r15	;#0xffdf
    9602:	82 4f 32 0f 	mov	r15,	&0x0f32	
    9606:	9b 3c       	jmp	$+312    	;abs 0x973e
    9608:	3f 40 e8 1f 	mov	#8168,	r15	;#0x1fe8
    960c:	b0 12 e4 8b 	call	#0x8be4	
    9610:	92 43 a2 1f 	mov	#1,	&0x1fa2	;r3 As==01
    9614:	94 3c       	jmp	$+298    	;abs 0x973e
    9616:	17 42 5a 03 	mov	&0x035a,r7	
    961a:	08 4c       	mov	r12,	r8	
    961c:	08 87       	sub	r7,	r8	
    961e:	09 43       	clr	r9		
    9620:	0a 43       	clr	r10		
    9622:	0b 43       	clr	r11		
    9624:	04 4c       	mov	r12,	r4	
    9626:	05 4d       	mov	r13,	r5	
    9628:	06 4e       	mov	r14,	r6	
    962a:	07 4f       	mov	r15,	r7	
    962c:	04 88       	sub	r8,	r4	
    962e:	05 79       	subc	r9,	r5	
    9630:	06 7a       	subc	r10,	r6	
    9632:	07 7b       	subc	r11,	r7	
    9634:	82 44 e8 1f 	mov	r4,	&0x1fe8	
    9638:	82 45 ea 1f 	mov	r5,	&0x1fea	
    963c:	82 46 ec 1f 	mov	r6,	&0x1fec	
    9640:	82 47 ee 1f 	mov	r7,	&0x1fee	
    9644:	1f 42 34 0f 	mov	&0x0f34,r15	
    9648:	3f b0 00 02 	bit	#512,	r15	;#0x0200
    964c:	2f 20       	jnz	$+96     	;abs 0x96ac
    964e:	5f 43       	mov.b	#1,	r15	;r3 As==01
    9650:	b0 12 b0 92 	call	#0x92b0	
    9654:	3f f0 70 00 	and	#112,	r15	;#0x0070
    9658:	5f 0d       	rram	#4,	r15	
    965a:	1f 93       	cmp	#1,	r15	;r3 As==01
    965c:	03 24       	jz	$+8      	;abs 0x9664
    965e:	2f 93       	cmp	#2,	r15	;r3 As==10
    9660:	22 20       	jnz	$+70     	;abs 0x96a6
    9662:	13 3c       	jmp	$+40     	;abs 0x968a
    9664:	a2 43 a2 1f 	mov	#2,	&0x1fa2	;r3 As==10
    9668:	c2 43 e7 1f 	mov.b	#0,	&0x1fe7	;r3 As==00
    966c:	c2 43 e6 1f 	mov.b	#0,	&0x1fe6	;r3 As==00
    9670:	c2 43 f0 1f 	mov.b	#0,	&0x1ff0	;r3 As==00
    9674:	b2 e0 00 02 	xor	#512,	&0x0f34	;#0x0200
    9678:	34 0f 
    967a:	b2 f0 ff fd 	and	#-513,	&0x0f32	;#0xfdff
    967e:	32 0f 
    9680:	3f 40 e8 1f 	mov	#8168,	r15	;#0x1fe8
    9684:	b0 12 c0 8a 	call	#0x8ac0	
    9688:	5a 3c       	jmp	$+182    	;abs 0x973e
    968a:	b2 40 03 00 	mov	#3,	&0x1fa2	;#0x0003
    968e:	a2 1f 
    9690:	b2 e0 00 02 	xor	#512,	&0x0f34	;#0x0200
    9694:	34 0f 
    9696:	b2 f0 ff fd 	and	#-513,	&0x0f32	;#0xfdff
    969a:	32 0f 
    969c:	3f 40 e8 1f 	mov	#8168,	r15	;#0x1fe8
    96a0:	b0 12 c2 8a 	call	#0x8ac2	
    96a4:	4c 3c       	jmp	$+154    	;abs 0x973e
    96a6:	92 43 a2 1f 	mov	#1,	&0x1fa2	;r3 As==01
    96aa:	45 3c       	jmp	$+140    	;abs 0x9736
    96ac:	1f 42 a2 1f 	mov	&0x1fa2,r15	
    96b0:	2f 93       	cmp	#2,	r15	;r3 As==10
    96b2:	04 24       	jz	$+10     	;abs 0x96bc
    96b4:	3f 90 03 00 	cmp	#3,	r15	;#0x0003
    96b8:	36 20       	jnz	$+110    	;abs 0x9726
    96ba:	28 3c       	jmp	$+82     	;abs 0x970c
    96bc:	92 43 a2 1f 	mov	#1,	&0x1fa2	;r3 As==01
    96c0:	7f 40 38 00 	mov.b	#56,	r15	;#0x0038
    96c4:	b0 12 18 90 	call	#0x9018	
    96c8:	4f 93       	tst.b	r15		
    96ca:	15 34       	jge	$+44     	;abs 0x96f6
    96cc:	7f 40 3b 00 	mov.b	#59,	r15	;#0x003b
    96d0:	b0 12 18 90 	call	#0x9018	
    96d4:	b0 12 94 91 	call	#0x9194	
    96d8:	b2 e0 00 02 	xor	#512,	&0x0f34	;#0x0200
    96dc:	34 0f 
    96de:	b2 f0 ff fd 	and	#-513,	&0x0f32	;#0xfdff
    96e2:	32 0f 
    96e4:	5d 42 a4 1f 	mov.b	&0x1fa4,r13	
    96e8:	3e 40 a6 1f 	mov	#8102,	r14	;#0x1fa6
    96ec:	3f 40 e8 1f 	mov	#8168,	r15	;#0x1fe8
    96f0:	b0 12 c6 8a 	call	#0x8ac6	
    96f4:	24 3c       	jmp	$+74     	;abs 0x973e
    96f6:	b2 e0 00 02 	xor	#512,	&0x0f34	;#0x0200
    96fa:	34 0f 
    96fc:	b2 f0 ff fd 	and	#-513,	&0x0f32	;#0xfdff
    9700:	32 0f 
    9702:	3f 40 e8 1f 	mov	#8168,	r15	;#0x1fe8
    9706:	b0 12 b4 8b 	call	#0x8bb4	
    970a:	19 3c       	jmp	$+52     	;abs 0x973e
    970c:	92 43 a2 1f 	mov	#1,	&0x1fa2	;r3 As==01
    9710:	b2 e0 00 02 	xor	#512,	&0x0f34	;#0x0200
    9714:	34 0f 
    9716:	b2 f0 ff fd 	and	#-513,	&0x0f32	;#0xfdff
    971a:	32 0f 
    971c:	3f 40 e8 1f 	mov	#8168,	r15	;#0x1fe8
    9720:	b0 12 88 8b 	call	#0x8b88	
    9724:	0c 3c       	jmp	$+26     	;abs 0x973e
    9726:	92 43 a2 1f 	mov	#1,	&0x1fa2	;r3 As==01
    972a:	b2 e0 00 02 	xor	#512,	&0x0f34	;#0x0200
    972e:	34 0f 
    9730:	b2 f0 ff fd 	and	#-513,	&0x0f32	;#0xfdff
    9734:	32 0f 
    9736:	3f 40 e8 1f 	mov	#8168,	r15	;#0x1fe8
    973a:	b0 12 e4 8b 	call	#0x8be4	
    973e:	b4 17       	popm	#12,	r15	
    9740:	00 13       	reti			

00009742 <update_rtimer_state>:
    9742:	2b 15       	pushm	#3,	r11	
    9744:	0b 4f       	mov	r15,	r11	
    9746:	5f 06       	rlam	#2,	r15	
    9748:	0e 4b       	mov	r11,	r14	
    974a:	5e 0e       	rlam	#4,	r14	
    974c:	0f 5e       	add	r14,	r15	
    974e:	3f 50 f6 1f 	add	#8182,	r15	;#0x1ff6
    9752:	af 93 12 00 	cmp	#2,	18(r15)	;r3 As==10, 0x0012(r15)
    9756:	4b 20       	jnz	$+152    	;abs 0x97ee
    9758:	1c 4f 08 00 	mov	8(r15),	r12	;0x0008(r15)
    975c:	1d 4f 0a 00 	mov	10(r15),r13	;0x000a(r15)
    9760:	1e 4f 0c 00 	mov	12(r15),r14	;0x000c(r15)
    9764:	1f 4f 0e 00 	mov	14(r15),r15	;0x000e(r15)
    9768:	0c 93       	tst	r12		
    976a:	06 20       	jnz	$+14     	;abs 0x9778
    976c:	0d 93       	tst	r13		
    976e:	04 20       	jnz	$+10     	;abs 0x9778
    9770:	0e 93       	tst	r14		
    9772:	02 20       	jnz	$+6      	;abs 0x9778
    9774:	0f 93       	tst	r15		
    9776:	26 24       	jz	$+78     	;abs 0x97c4
    9778:	0a 4b       	mov	r11,	r10	
    977a:	5a 06       	rlam	#2,	r10	
    977c:	09 4b       	mov	r11,	r9	
    977e:	59 0e       	rlam	#4,	r9	
    9780:	0a 59       	add	r9,	r10	
    9782:	3a 50 f6 1f 	add	#8182,	r10	;#0x1ff6
    9786:	8a 5c 00 00 	add	r12,	0(r10)	;0x0000(r10)
    978a:	8a 6d 02 00 	addc	r13,	2(r10)	;0x0002(r10)
    978e:	8a 6e 04 00 	addc	r14,	4(r10)	;0x0004(r10)
    9792:	8a 6f 06 00 	addc	r15,	6(r10)	;0x0006(r10)
    9796:	0f 4b       	mov	r11,	r15	
    9798:	3b 90 05 00 	cmp	#5,	r11	;#0x0005
    979c:	06 28       	jnc	$+14     	;abs 0x97aa
    979e:	3f 50 fb ff 	add	#-5,	r15	;#0xfffb
    97a2:	5f 02       	rlam	#1,	r15	
    97a4:	3f 50 92 03 	add	#914,	r15	;#0x0392
    97a8:	03 3c       	jmp	$+8      	;abs 0x97b0
    97aa:	5f 02       	rlam	#1,	r15	
    97ac:	3f 50 52 03 	add	#850,	r15	;#0x0352
    97b0:	9f 5a 08 00 	add	8(r10),	0(r15)	;0x0008(r10), 0x0000(r15)
    97b4:	00 00 
    97b6:	0f 4b       	mov	r11,	r15	
    97b8:	5f 06       	rlam	#2,	r15	
    97ba:	5b 0e       	rlam	#4,	r11	
    97bc:	0f 5b       	add	r11,	r15	
    97be:	9f 43 08 20 	mov	#1,	8200(r15);r3 As==01, 0x2008(r15)
    97c2:	15 3c       	jmp	$+44     	;abs 0x97ee
    97c4:	0f 4b       	mov	r11,	r15	
    97c6:	3b 90 05 00 	cmp	#5,	r11	;#0x0005
    97ca:	06 28       	jnc	$+14     	;abs 0x97d8
    97cc:	3f 50 fb ff 	add	#-5,	r15	;#0xfffb
    97d0:	5f 02       	rlam	#1,	r15	
    97d2:	3f 50 82 03 	add	#898,	r15	;#0x0382
    97d6:	03 3c       	jmp	$+8      	;abs 0x97de
    97d8:	5f 02       	rlam	#1,	r15	
    97da:	3f 50 42 03 	add	#834,	r15	;#0x0342
    97de:	8f 43 00 00 	mov	#0,	0(r15)	;r3 As==00, 0x0000(r15)
    97e2:	0f 4b       	mov	r11,	r15	
    97e4:	5f 06       	rlam	#2,	r15	
    97e6:	5b 0e       	rlam	#4,	r11	
    97e8:	0f 5b       	add	r11,	r15	
    97ea:	8f 43 08 20 	mov	#0,	8200(r15);r3 As==00, 0x2008(r15)
    97ee:	29 17       	popm	#3,	r11	
    97f0:	30 41       	ret			

000097f2 <rtimer_init>:
    97f2:	82 43 0a 21 	mov	#0,	&0x210a	;r3 As==00
    97f6:	82 43 0c 21 	mov	#0,	&0x210c	;r3 As==00
    97fa:	82 43 0e 21 	mov	#0,	&0x210e	;r3 As==00
    97fe:	82 43 10 21 	mov	#0,	&0x2110	;r3 As==00
    9802:	82 43 60 03 	mov	#0,	&0x0360	;r3 As==00
    9806:	b2 40 26 02 	mov	#550,	&0x0340	;#0x0226
    980a:	40 03 
    980c:	82 43 02 21 	mov	#0,	&0x2102	;r3 As==00
    9810:	82 43 04 21 	mov	#0,	&0x2104	;r3 As==00
    9814:	82 43 06 21 	mov	#0,	&0x2106	;r3 As==00
    9818:	82 43 08 21 	mov	#0,	&0x2108	;r3 As==00
    981c:	82 43 a0 03 	mov	#0,	&0x03a0	;r3 As==00
    9820:	b2 40 26 01 	mov	#294,	&0x0380	;#0x0126
    9824:	80 03 
    9826:	3d 40 a0 00 	mov	#160,	r13	;#0x00a0
    982a:	0e 43       	clr	r14		
    982c:	3f 40 f6 1f 	mov	#8182,	r15	;#0x1ff6
    9830:	b0 12 da 9f 	call	#0x9fda	
    9834:	30 41       	ret			

00009836 <rtimer_now_hf>:
    9836:	7b 15       	pushm	#8,	r11	
    9838:	31 50 fa ff 	add	#-6,	r1	;#0xfffa
    983c:	81 42 00 00 	mov	r2,	0(r1)	;0x0000(r1)
    9840:	b1 f2 00 00 	and	#8,	0(r1)	;r2 As==11, 0x0000(r1)
    9844:	32 c2       	dint			
    9846:	03 43       	nop			
    9848:	03 43       	nop			
    984a:	18 42 0a 21 	mov	&0x210a,r8	
    984e:	19 42 0c 21 	mov	&0x210c,r9	
    9852:	1a 42 0e 21 	mov	&0x210e,r10	
    9856:	1b 42 10 21 	mov	&0x2110,r11	
    985a:	14 42 50 03 	mov	&0x0350,r4	
    985e:	92 b3 40 03 	bit	#1,	&0x0340	;r3 As==01
    9862:	06 24       	jz	$+14     	;abs 0x9870
    9864:	18 53       	inc	r8		
    9866:	09 63       	adc	r9		
    9868:	0a 63       	adc	r10		
    986a:	0b 63       	adc	r11		
    986c:	14 42 50 03 	mov	&0x0350,r4	
    9870:	0c 44       	mov	r4,	r12	
    9872:	0d 43       	clr	r13		
    9874:	0e 43       	clr	r14		
    9876:	0f 43       	clr	r15		
    9878:	81 4a 04 00 	mov	r10,	4(r1)	;0x0004(r1)
    987c:	81 49 02 00 	mov	r9,	2(r1)	;0x0002(r1)
    9880:	04 43       	clr	r4		
    9882:	05 43       	clr	r5		
    9884:	06 43       	clr	r6		
    9886:	07 43       	clr	r7		
    9888:	05 48       	mov	r8,	r5	
    988a:	06 49       	mov	r9,	r6	
    988c:	07 4a       	mov	r10,	r7	
    988e:	0c d4       	bis	r4,	r12	
    9890:	0d d5       	bis	r5,	r13	
    9892:	0e d6       	bis	r6,	r14	
    9894:	0f d7       	bis	r7,	r15	
    9896:	81 93 00 00 	tst	0(r1)		;0x0000(r1)
    989a:	02 24       	jz	$+6      	;abs 0x98a0
    989c:	32 d2       	eint			
    989e:	03 43       	nop			
    98a0:	31 50 06 00 	add	#6,	r1	;#0x0006
    98a4:	74 17       	popm	#8,	r11	
    98a6:	30 41       	ret			

000098a8 <rtimer_now_lf>:
    98a8:	7b 15       	pushm	#8,	r11	
    98aa:	31 50 fa ff 	add	#-6,	r1	;#0xfffa
    98ae:	81 42 00 00 	mov	r2,	0(r1)	;0x0000(r1)
    98b2:	b1 f2 00 00 	and	#8,	0(r1)	;r2 As==11, 0x0000(r1)
    98b6:	32 c2       	dint			
    98b8:	03 43       	nop			
    98ba:	03 43       	nop			
    98bc:	18 42 02 21 	mov	&0x2102,r8	
    98c0:	19 42 04 21 	mov	&0x2104,r9	
    98c4:	1a 42 06 21 	mov	&0x2106,r10	
    98c8:	1b 42 08 21 	mov	&0x2108,r11	
    98cc:	14 42 90 03 	mov	&0x0390,r4	
    98d0:	1f 42 90 03 	mov	&0x0390,r15	
    98d4:	04 9f       	cmp	r15,	r4	
    98d6:	fa 23       	jnz	$-10     	;abs 0x98cc
    98d8:	92 b3 80 03 	bit	#1,	&0x0380	;r3 As==01
    98dc:	0a 24       	jz	$+22     	;abs 0x98f2
    98de:	18 53       	inc	r8		
    98e0:	09 63       	adc	r9		
    98e2:	0a 63       	adc	r10		
    98e4:	0b 63       	adc	r11		
    98e6:	14 42 90 03 	mov	&0x0390,r4	
    98ea:	1f 42 90 03 	mov	&0x0390,r15	
    98ee:	04 9f       	cmp	r15,	r4	
    98f0:	fa 23       	jnz	$-10     	;abs 0x98e6
    98f2:	0c 44       	mov	r4,	r12	
    98f4:	0d 43       	clr	r13		
    98f6:	0e 43       	clr	r14		
    98f8:	0f 43       	clr	r15		
    98fa:	81 4a 04 00 	mov	r10,	4(r1)	;0x0004(r1)
    98fe:	81 49 02 00 	mov	r9,	2(r1)	;0x0002(r1)
    9902:	04 43       	clr	r4		
    9904:	05 43       	clr	r5		
    9906:	06 43       	clr	r6		
    9908:	07 43       	clr	r7		
    990a:	05 48       	mov	r8,	r5	
    990c:	06 49       	mov	r9,	r6	
    990e:	07 4a       	mov	r10,	r7	
    9910:	0c d4       	bis	r4,	r12	
    9912:	0d d5       	bis	r5,	r13	
    9914:	0e d6       	bis	r6,	r14	
    9916:	0f d7       	bis	r7,	r15	
    9918:	81 93 00 00 	tst	0(r1)		;0x0000(r1)
    991c:	02 24       	jz	$+6      	;abs 0x9922
    991e:	32 d2       	eint			
    9920:	03 43       	nop			
    9922:	31 50 06 00 	add	#6,	r1	;#0x0006
    9926:	74 17       	popm	#8,	r11	
    9928:	30 41       	ret			

0000992a <clock_time>:
    992a:	1e 42 f2 1f 	mov	&0x1ff2,r14	
    992e:	1f 42 f4 1f 	mov	&0x1ff4,r15	
    9932:	1c 42 f2 1f 	mov	&0x1ff2,r12	
    9936:	1d 42 f4 1f 	mov	&0x1ff4,r13	
    993a:	0e 9c       	cmp	r12,	r14	
    993c:	f6 23       	jnz	$-18     	;abs 0x992a
    993e:	0f 9d       	cmp	r13,	r15	
    9940:	f4 23       	jnz	$-22     	;abs 0x992a
    9942:	30 41       	ret			

00009944 <timer0_a0_interrupt>:
    9944:	3f 15       	pushm	#4,	r15	
    9946:	b0 12 36 98 	call	#0x9836	
    994a:	1f 92 fc 1f 	cmp	&0x1ffc,r15	
    994e:	21 28       	jnc	$+68     	;abs 0x9992
    9950:	0b 20       	jnz	$+24     	;abs 0x9968
    9952:	1e 92 fa 1f 	cmp	&0x1ffa,r14	
    9956:	1d 28       	jnc	$+60     	;abs 0x9992
    9958:	07 20       	jnz	$+16     	;abs 0x9968
    995a:	1d 92 f8 1f 	cmp	&0x1ff8,r13	
    995e:	19 28       	jnc	$+52     	;abs 0x9992
    9960:	03 20       	jnz	$+8      	;abs 0x9968
    9962:	1c 92 f6 1f 	cmp	&0x1ff6,r12	
    9966:	15 28       	jnc	$+44     	;abs 0x9992
    9968:	92 93 08 20 	cmp	#1,	&0x2008	;r3 As==01
    996c:	12 20       	jnz	$+38     	;abs 0x9992
    996e:	a2 43 08 20 	mov	#2,	&0x2008	;r3 As==10
    9972:	3f 40 f6 1f 	mov	#8182,	r15	;#0x1ff6
    9976:	92 12 06 20 	call	&0x2006	
    997a:	0f 43       	clr	r15		
    997c:	b0 12 42 97 	call	#0x9742	
    9980:	b0 12 de 84 	call	#0x84de	
    9984:	0f 93       	tst	r15		
    9986:	0d 24       	jz	$+28     	;abs 0x99a2
    9988:	0c 38       	jl	$+26     	;abs 0x99a2
    998a:	b1 c0 f0 00 	bic	#240,	8(r1)	;#0x00f0, 0x0008(r1)
    998e:	08 00 
    9990:	08 3c       	jmp	$+18     	;abs 0x99a2
    9992:	b2 90 03 00 	cmp	#3,	&0x2008	;#0x0003
    9996:	08 20 
    9998:	04 20       	jnz	$+10     	;abs 0x99a2
    999a:	3f 40 f6 1f 	mov	#8182,	r15	;#0x1ff6
    999e:	92 12 06 20 	call	&0x2006	
    99a2:	b0 12 de 84 	call	#0x84de	
    99a6:	0f 93       	tst	r15		
    99a8:	04 24       	jz	$+10     	;abs 0x99b2
    99aa:	03 38       	jl	$+8      	;abs 0x99b2
    99ac:	b1 c0 f0 00 	bic	#240,	8(r1)	;#0x00f0, 0x0008(r1)
    99b0:	08 00 
    99b2:	3c 17       	popm	#4,	r15	
    99b4:	00 13       	reti			

000099b6 <timer0_a1_interrupt>:
    99b6:	3f 15       	pushm	#4,	r15	
    99b8:	1f 42 6e 03 	mov	&0x036e,r15	
    99bc:	2f 92       	cmp	#4,	r15	;r2 As==10
    99be:	32 24       	jz	$+102    	;abs 0x9a24
    99c0:	3f 90 05 00 	cmp	#5,	r15	;#0x0005
    99c4:	03 2c       	jc	$+8      	;abs 0x99cc
    99c6:	2f 93       	cmp	#2,	r15	;r3 As==10
    99c8:	b2 20       	jnz	$+358    	;abs 0x9b2e
    99ca:	07 3c       	jmp	$+16     	;abs 0x99da
    99cc:	3f 90 06 00 	cmp	#6,	r15	;#0x0006
    99d0:	4e 24       	jz	$+158    	;abs 0x9a6e
    99d2:	3f 90 0e 00 	cmp	#14,	r15	;#0x000e
    99d6:	ab 20       	jnz	$+344    	;abs 0x9b2e
    99d8:	77 3c       	jmp	$+240    	;abs 0x9ac8
    99da:	b0 12 36 98 	call	#0x9836	
    99de:	1f 92 10 20 	cmp	&0x2010,r15	
    99e2:	17 28       	jnc	$+48     	;abs 0x9a12
    99e4:	0b 20       	jnz	$+24     	;abs 0x99fc
    99e6:	1e 92 0e 20 	cmp	&0x200e,r14	
    99ea:	13 28       	jnc	$+40     	;abs 0x9a12
    99ec:	07 20       	jnz	$+16     	;abs 0x99fc
    99ee:	1d 92 0c 20 	cmp	&0x200c,r13	
    99f2:	0f 28       	jnc	$+32     	;abs 0x9a12
    99f4:	03 20       	jnz	$+8      	;abs 0x99fc
    99f6:	1c 92 0a 20 	cmp	&0x200a,r12	
    99fa:	0b 28       	jnc	$+24     	;abs 0x9a12
    99fc:	92 93 1c 20 	cmp	#1,	&0x201c	;r3 As==01
    9a00:	08 20       	jnz	$+18     	;abs 0x9a12
    9a02:	a2 43 1c 20 	mov	#2,	&0x201c	;r3 As==10
    9a06:	3f 40 0a 20 	mov	#8202,	r15	;#0x200a
    9a0a:	92 12 1a 20 	call	&0x201a	
    9a0e:	1f 43       	mov	#1,	r15	;r3 As==01
    9a10:	4a 3c       	jmp	$+150    	;abs 0x9aa6
    9a12:	b2 90 03 00 	cmp	#3,	&0x201c	;#0x0003
    9a16:	1c 20 
    9a18:	8a 20       	jnz	$+278    	;abs 0x9b2e
    9a1a:	3f 40 0a 20 	mov	#8202,	r15	;#0x200a
    9a1e:	92 12 1a 20 	call	&0x201a	
    9a22:	85 3c       	jmp	$+268    	;abs 0x9b2e
    9a24:	b0 12 36 98 	call	#0x9836	
    9a28:	1f 92 24 20 	cmp	&0x2024,r15	
    9a2c:	17 28       	jnc	$+48     	;abs 0x9a5c
    9a2e:	0b 20       	jnz	$+24     	;abs 0x9a46
    9a30:	1e 92 22 20 	cmp	&0x2022,r14	
    9a34:	13 28       	jnc	$+40     	;abs 0x9a5c
    9a36:	07 20       	jnz	$+16     	;abs 0x9a46
    9a38:	1d 92 20 20 	cmp	&0x2020,r13	
    9a3c:	0f 28       	jnc	$+32     	;abs 0x9a5c
    9a3e:	03 20       	jnz	$+8      	;abs 0x9a46
    9a40:	1c 92 1e 20 	cmp	&0x201e,r12	
    9a44:	0b 28       	jnc	$+24     	;abs 0x9a5c
    9a46:	92 93 30 20 	cmp	#1,	&0x2030	;r3 As==01
    9a4a:	08 20       	jnz	$+18     	;abs 0x9a5c
    9a4c:	a2 43 30 20 	mov	#2,	&0x2030	;r3 As==10
    9a50:	3f 40 1e 20 	mov	#8222,	r15	;#0x201e
    9a54:	92 12 2e 20 	call	&0x202e	
    9a58:	2f 43       	mov	#2,	r15	;r3 As==10
    9a5a:	25 3c       	jmp	$+76     	;abs 0x9aa6
    9a5c:	b2 90 03 00 	cmp	#3,	&0x2030	;#0x0003
    9a60:	30 20 
    9a62:	65 20       	jnz	$+204    	;abs 0x9b2e
    9a64:	3f 40 1e 20 	mov	#8222,	r15	;#0x201e
    9a68:	92 12 2e 20 	call	&0x202e	
    9a6c:	60 3c       	jmp	$+194    	;abs 0x9b2e
    9a6e:	b0 12 36 98 	call	#0x9836	
    9a72:	1f 92 38 20 	cmp	&0x2038,r15	
    9a76:	1f 28       	jnc	$+64     	;abs 0x9ab6
    9a78:	0b 20       	jnz	$+24     	;abs 0x9a90
    9a7a:	1e 92 36 20 	cmp	&0x2036,r14	
    9a7e:	1b 28       	jnc	$+56     	;abs 0x9ab6
    9a80:	07 20       	jnz	$+16     	;abs 0x9a90
    9a82:	1d 92 34 20 	cmp	&0x2034,r13	
    9a86:	17 28       	jnc	$+48     	;abs 0x9ab6
    9a88:	03 20       	jnz	$+8      	;abs 0x9a90
    9a8a:	1c 92 32 20 	cmp	&0x2032,r12	
    9a8e:	13 28       	jnc	$+40     	;abs 0x9ab6
    9a90:	92 93 44 20 	cmp	#1,	&0x2044	;r3 As==01
    9a94:	10 20       	jnz	$+34     	;abs 0x9ab6
    9a96:	a2 43 44 20 	mov	#2,	&0x2044	;r3 As==10
    9a9a:	3f 40 32 20 	mov	#8242,	r15	;#0x2032
    9a9e:	92 12 42 20 	call	&0x2042	
    9aa2:	3f 40 03 00 	mov	#3,	r15	;#0x0003
    9aa6:	b0 12 42 97 	call	#0x9742	
    9aaa:	b0 12 de 84 	call	#0x84de	
    9aae:	0f 93       	tst	r15		
    9ab0:	01 24       	jz	$+4      	;abs 0x9ab4
    9ab2:	3a 34       	jge	$+118    	;abs 0x9b28
    9ab4:	3c 3c       	jmp	$+122    	;abs 0x9b2e
    9ab6:	b2 90 03 00 	cmp	#3,	&0x2044	;#0x0003
    9aba:	44 20 
    9abc:	38 20       	jnz	$+114    	;abs 0x9b2e
    9abe:	3f 40 32 20 	mov	#8242,	r15	;#0x2032
    9ac2:	92 12 42 20 	call	&0x2042	
    9ac6:	33 3c       	jmp	$+104    	;abs 0x9b2e
    9ac8:	1c 42 0a 21 	mov	&0x210a,r12	
    9acc:	1d 42 0c 21 	mov	&0x210c,r13	
    9ad0:	1e 42 0e 21 	mov	&0x210e,r14	
    9ad4:	1f 42 10 21 	mov	&0x2110,r15	
    9ad8:	1c 53       	inc	r12		
    9ada:	0d 63       	adc	r13		
    9adc:	0e 63       	adc	r14		
    9ade:	0f 63       	adc	r15		
    9ae0:	82 4c 0a 21 	mov	r12,	&0x210a	
    9ae4:	82 4d 0c 21 	mov	r13,	&0x210c	
    9ae8:	82 4e 0e 21 	mov	r14,	&0x210e	
    9aec:	82 4f 10 21 	mov	r15,	&0x2110	
    9af0:	1e 42 f2 1f 	mov	&0x1ff2,r14	
    9af4:	1f 42 f4 1f 	mov	&0x1ff4,r15	
    9af8:	1e 53       	inc	r14		
    9afa:	0f 63       	adc	r15		
    9afc:	82 4e f2 1f 	mov	r14,	&0x1ff2	
    9b00:	82 4f f4 1f 	mov	r15,	&0x1ff4	
    9b04:	b0 12 f2 82 	call	#0x82f2	
    9b08:	0f 93       	tst	r15		
    9b0a:	11 24       	jz	$+36     	;abs 0x9b2e
    9b0c:	b0 12 fe 82 	call	#0x82fe	
    9b10:	1c 42 f2 1f 	mov	&0x1ff2,r12	
    9b14:	1d 42 f4 1f 	mov	&0x1ff4,r13	
    9b18:	3c e3       	inv	r12		
    9b1a:	3d e3       	inv	r13		
    9b1c:	0c 5e       	add	r14,	r12	
    9b1e:	0d 6f       	addc	r15,	r13	
    9b20:	0d 93       	tst	r13		
    9b22:	05 34       	jge	$+12     	;abs 0x9b2e
    9b24:	b0 12 c8 81 	call	#0x81c8	
    9b28:	b1 c0 f0 00 	bic	#240,	8(r1)	;#0x00f0, 0x0008(r1)
    9b2c:	08 00 
    9b2e:	3c 17       	popm	#4,	r15	
    9b30:	00 13       	reti			

00009b32 <timer1_a0_interrupt>:
    9b32:	3f 15       	pushm	#4,	r15	
    9b34:	b0 12 a8 98 	call	#0x98a8	
    9b38:	1f 92 60 20 	cmp	&0x2060,r15	
    9b3c:	22 28       	jnc	$+70     	;abs 0x9b82
    9b3e:	0b 20       	jnz	$+24     	;abs 0x9b56
    9b40:	1e 92 5e 20 	cmp	&0x205e,r14	
    9b44:	1e 28       	jnc	$+62     	;abs 0x9b82
    9b46:	07 20       	jnz	$+16     	;abs 0x9b56
    9b48:	1d 92 5c 20 	cmp	&0x205c,r13	
    9b4c:	1a 28       	jnc	$+54     	;abs 0x9b82
    9b4e:	03 20       	jnz	$+8      	;abs 0x9b56
    9b50:	1c 92 5a 20 	cmp	&0x205a,r12	
    9b54:	16 28       	jnc	$+46     	;abs 0x9b82
    9b56:	92 93 6c 20 	cmp	#1,	&0x206c	;r3 As==01
    9b5a:	13 20       	jnz	$+40     	;abs 0x9b82
    9b5c:	a2 43 6c 20 	mov	#2,	&0x206c	;r3 As==10
    9b60:	3f 40 5a 20 	mov	#8282,	r15	;#0x205a
    9b64:	92 12 6a 20 	call	&0x206a	
    9b68:	3f 40 05 00 	mov	#5,	r15	;#0x0005
    9b6c:	b0 12 42 97 	call	#0x9742	
    9b70:	b0 12 de 84 	call	#0x84de	
    9b74:	0f 93       	tst	r15		
    9b76:	0d 24       	jz	$+28     	;abs 0x9b92
    9b78:	0c 38       	jl	$+26     	;abs 0x9b92
    9b7a:	b1 c0 f0 00 	bic	#240,	8(r1)	;#0x00f0, 0x0008(r1)
    9b7e:	08 00 
    9b80:	08 3c       	jmp	$+18     	;abs 0x9b92
    9b82:	b2 90 03 00 	cmp	#3,	&0x206c	;#0x0003
    9b86:	6c 20 
    9b88:	04 20       	jnz	$+10     	;abs 0x9b92
    9b8a:	3f 40 5a 20 	mov	#8282,	r15	;#0x205a
    9b8e:	92 12 6a 20 	call	&0x206a	
    9b92:	3c 17       	popm	#4,	r15	
    9b94:	00 13       	reti			

00009b96 <timer1_a1_interrupt>:
    9b96:	3f 15       	pushm	#4,	r15	
    9b98:	1f 42 ae 03 	mov	&0x03ae,r15	
    9b9c:	2f 92       	cmp	#4,	r15	;r2 As==10
    9b9e:	2b 24       	jz	$+88     	;abs 0x9bf6
    9ba0:	3f 90 0e 00 	cmp	#14,	r15	;#0x000e
    9ba4:	58 24       	jz	$+178    	;abs 0x9c56
    9ba6:	2f 93       	cmp	#2,	r15	;r3 As==10
    9ba8:	6a 20       	jnz	$+214    	;abs 0x9c7e
    9baa:	b0 12 a8 98 	call	#0x98a8	
    9bae:	1f 92 74 20 	cmp	&0x2074,r15	
    9bb2:	18 28       	jnc	$+50     	;abs 0x9be4
    9bb4:	0b 20       	jnz	$+24     	;abs 0x9bcc
    9bb6:	1e 92 72 20 	cmp	&0x2072,r14	
    9bba:	14 28       	jnc	$+42     	;abs 0x9be4
    9bbc:	07 20       	jnz	$+16     	;abs 0x9bcc
    9bbe:	1d 92 70 20 	cmp	&0x2070,r13	
    9bc2:	10 28       	jnc	$+34     	;abs 0x9be4
    9bc4:	03 20       	jnz	$+8      	;abs 0x9bcc
    9bc6:	1c 92 6e 20 	cmp	&0x206e,r12	
    9bca:	0c 28       	jnc	$+26     	;abs 0x9be4
    9bcc:	92 93 80 20 	cmp	#1,	&0x2080	;r3 As==01
    9bd0:	09 20       	jnz	$+20     	;abs 0x9be4
    9bd2:	a2 43 80 20 	mov	#2,	&0x2080	;r3 As==10
    9bd6:	3f 40 6e 20 	mov	#8302,	r15	;#0x206e
    9bda:	92 12 7e 20 	call	&0x207e	
    9bde:	3f 40 06 00 	mov	#6,	r15	;#0x0006
    9be2:	25 3c       	jmp	$+76     	;abs 0x9c2e
    9be4:	b2 90 03 00 	cmp	#3,	&0x2080	;#0x0003
    9be8:	80 20 
    9bea:	49 20       	jnz	$+148    	;abs 0x9c7e
    9bec:	3f 40 6e 20 	mov	#8302,	r15	;#0x206e
    9bf0:	92 12 7e 20 	call	&0x207e	
    9bf4:	44 3c       	jmp	$+138    	;abs 0x9c7e
    9bf6:	b0 12 a8 98 	call	#0x98a8	
    9bfa:	1f 92 88 20 	cmp	&0x2088,r15	
    9bfe:	22 28       	jnc	$+70     	;abs 0x9c44
    9c00:	0b 20       	jnz	$+24     	;abs 0x9c18
    9c02:	1e 92 86 20 	cmp	&0x2086,r14	
    9c06:	1e 28       	jnc	$+62     	;abs 0x9c44
    9c08:	07 20       	jnz	$+16     	;abs 0x9c18
    9c0a:	1d 92 84 20 	cmp	&0x2084,r13	
    9c0e:	1a 28       	jnc	$+54     	;abs 0x9c44
    9c10:	03 20       	jnz	$+8      	;abs 0x9c18
    9c12:	1c 92 82 20 	cmp	&0x2082,r12	
    9c16:	16 28       	jnc	$+46     	;abs 0x9c44
    9c18:	92 93 94 20 	cmp	#1,	&0x2094	;r3 As==01
    9c1c:	13 20       	jnz	$+40     	;abs 0x9c44
    9c1e:	a2 43 94 20 	mov	#2,	&0x2094	;r3 As==10
    9c22:	3f 40 82 20 	mov	#8322,	r15	;#0x2082
    9c26:	92 12 92 20 	call	&0x2092	
    9c2a:	3f 40 07 00 	mov	#7,	r15	;#0x0007
    9c2e:	b0 12 42 97 	call	#0x9742	
    9c32:	b0 12 de 84 	call	#0x84de	
    9c36:	0f 93       	tst	r15		
    9c38:	22 24       	jz	$+70     	;abs 0x9c7e
    9c3a:	21 38       	jl	$+68     	;abs 0x9c7e
    9c3c:	b1 c0 f0 00 	bic	#240,	8(r1)	;#0x00f0, 0x0008(r1)
    9c40:	08 00 
    9c42:	1d 3c       	jmp	$+60     	;abs 0x9c7e
    9c44:	b2 90 03 00 	cmp	#3,	&0x2094	;#0x0003
    9c48:	94 20 
    9c4a:	19 20       	jnz	$+52     	;abs 0x9c7e
    9c4c:	3f 40 82 20 	mov	#8322,	r15	;#0x2082
    9c50:	92 12 92 20 	call	&0x2092	
    9c54:	14 3c       	jmp	$+42     	;abs 0x9c7e
    9c56:	1c 42 02 21 	mov	&0x2102,r12	
    9c5a:	1d 42 04 21 	mov	&0x2104,r13	
    9c5e:	1e 42 06 21 	mov	&0x2106,r14	
    9c62:	1f 42 08 21 	mov	&0x2108,r15	
    9c66:	1c 53       	inc	r12		
    9c68:	0d 63       	adc	r13		
    9c6a:	0e 63       	adc	r14		
    9c6c:	0f 63       	adc	r15		
    9c6e:	82 4c 02 21 	mov	r12,	&0x2102	
    9c72:	82 4d 04 21 	mov	r13,	&0x2104	
    9c76:	82 4e 06 21 	mov	r14,	&0x2106	
    9c7a:	82 4f 08 21 	mov	r15,	&0x2108	
    9c7e:	3c 17       	popm	#4,	r15	
    9c80:	00 13       	reti			

00009c82 <putchar>:
    9c82:	5e 42 ca 05 	mov.b	&0x05ca,r14	
    9c86:	1e f3       	and	#1,	r14	;r3 As==01
    9c88:	fc 23       	jnz	$-6      	;abs 0x9c82
    9c8a:	c2 4f ce 05 	mov.b	r15,	&0x05ce	
    9c8e:	30 41       	ret			

00009c90 <uart_set_input_handler>:
    9c90:	82 4f 96 20 	mov	r15,	&0x2096	
    9c94:	f2 f0 fe ff 	and.b	#-2,	&0x05dd	;#0xfffe
    9c98:	dd 05 
    9c9a:	d2 d3 dc 05 	bis.b	#1,	&0x05dc	;r3 As==01
    9c9e:	30 41       	ret			

00009ca0 <uart_init>:
    9ca0:	32 c2       	dint			
    9ca2:	03 43       	nop			
    9ca4:	03 43       	nop			
    9ca6:	b2 40 52 2d 	mov	#11602,	&0x01c0	;#0x2d52
    9caa:	c0 01 
    9cac:	a2 d3 c2 01 	bis	#2,	&0x01c2	;r3 As==10
    9cb0:	e2 d3 0b 02 	bis.b	#2,	&0x020b	;r3 As==10
    9cb4:	e2 d3 05 02 	bis.b	#2,	&0x0205	;r3 As==10
    9cb8:	f2 40 12 00 	mov.b	#18,	&0x01d1	;#0x0012
    9cbc:	d1 01 
    9cbe:	82 43 c0 01 	mov	#0,	&0x01c0	;r3 As==00
    9cc2:	32 d2       	eint			
    9cc4:	03 43       	nop			
    9cc6:	32 c2       	dint			
    9cc8:	03 43       	nop			
    9cca:	03 43       	nop			
    9ccc:	b2 40 52 2d 	mov	#11602,	&0x01c0	;#0x2d52
    9cd0:	c0 01 
    9cd2:	a2 d3 c2 01 	bis	#2,	&0x01c2	;r3 As==10
    9cd6:	d2 d3 0b 02 	bis.b	#1,	&0x020b	;r3 As==01
    9cda:	f2 f0 fe ff 	and.b	#-2,	&0x0205	;#0xfffe
    9cde:	05 02 
    9ce0:	f2 40 11 00 	mov.b	#17,	&0x01d0	;#0x0011
    9ce4:	d0 01 
    9ce6:	82 43 c0 01 	mov	#0,	&0x01c0	;r3 As==00
    9cea:	32 d2       	eint			
    9cec:	03 43       	nop			
    9cee:	e2 d3 05 02 	bis.b	#2,	&0x0205	;r3 As==10
    9cf2:	f2 f0 fe ff 	and.b	#-2,	&0x0205	;#0xfffe
    9cf6:	05 02 
    9cf8:	e2 d3 0b 02 	bis.b	#2,	&0x020b	;r3 As==10
    9cfc:	d2 d3 0b 02 	bis.b	#1,	&0x020b	;r3 As==01
    9d00:	d2 d3 c0 05 	bis.b	#1,	&0x05c0	;r3 As==01
    9d04:	f2 f0 3f 00 	and.b	#63,	&0x05c0	;#0x003f
    9d08:	c0 05 
    9d0a:	f2 d0 80 ff 	bis.b	#-128,	&0x05c0	;#0xff80
    9d0e:	c0 05 
    9d10:	f2 f0 40 00 	and.b	#64,	&0x05c1	;#0x0040
    9d14:	c1 05 
    9d16:	b2 40 1c 00 	mov	#28,	&0x2098	;#0x001c
    9d1a:	98 20 
    9d1c:	82 43 9a 20 	mov	#0,	&0x209a	;r3 As==00
    9d20:	a2 43 9c 20 	mov	#2,	&0x209c	;r3 As==10
    9d24:	82 43 9e 20 	mov	#0,	&0x209e	;r3 As==00
    9d28:	b2 40 1c 00 	mov	#28,	&0x05c6	;#0x001c
    9d2c:	c6 05 
    9d2e:	e2 42 c8 05 	mov.b	#4,	&0x05c8	;r2 As==10
    9d32:	d2 42 c1 05 	mov.b	&0x05c1,&0x05c1	
    9d36:	c1 05 
    9d38:	f2 f0 fc ff 	and.b	#-4,	&0x05dd	;#0xfffc
    9d3c:	dd 05 
    9d3e:	30 41       	ret			

00009d40 <uart_enable>:
    9d40:	4f 93       	tst.b	r15		
    9d42:	05 24       	jz	$+12     	;abs 0x9d4e
    9d44:	5f 42 c0 05 	mov.b	&0x05c0,r15	
    9d48:	7f f0 fe ff 	and.b	#-2,	r15	;#0xfffe
    9d4c:	07 3c       	jmp	$+16     	;abs 0x9d5c
    9d4e:	5f 42 ca 05 	mov.b	&0x05ca,r15	
    9d52:	1f f3       	and	#1,	r15	;r3 As==01
    9d54:	fc 23       	jnz	$-6      	;abs 0x9d4e
    9d56:	5f 42 c0 05 	mov.b	&0x05c0,r15	
    9d5a:	5f d3       	bis.b	#1,	r15	;r3 As==01
    9d5c:	c2 4f c0 05 	mov.b	r15,	&0x05c0	
    9d60:	30 41       	ret			

00009d62 <uart0_rx_interrupt>:
    9d62:	3f 15       	pushm	#4,	r15	
    9d64:	5f 42 dd 05 	mov.b	&0x05dd,r15	
    9d68:	1f f3       	and	#1,	r15	;r3 As==01
    9d6a:	13 24       	jz	$+40     	;abs 0x9d92
    9d6c:	5f 42 ca 05 	mov.b	&0x05ca,r15	
    9d70:	2f f2       	and	#4,	r15	;r2 As==10
    9d72:	03 24       	jz	$+8      	;abs 0x9d7a
    9d74:	5f 42 cc 05 	mov.b	&0x05cc,r15	
    9d78:	0c 3c       	jmp	$+26     	;abs 0x9d92
    9d7a:	5f 42 cc 05 	mov.b	&0x05cc,r15	
    9d7e:	1e 42 96 20 	mov	&0x2096,r14	
    9d82:	0e 93       	tst	r14		
    9d84:	06 24       	jz	$+14     	;abs 0x9d92
    9d86:	8e 12       	call	r14		
    9d88:	0f 93       	tst	r15		
    9d8a:	03 24       	jz	$+8      	;abs 0x9d92
    9d8c:	b1 c0 f0 00 	bic	#240,	8(r1)	;#0x00f0, 0x0008(r1)
    9d90:	08 00 
    9d92:	3c 17       	popm	#4,	r15	
    9d94:	00 13       	reti			

00009d96 <process_thread_broadcast_receive_process>:
    9d96:	0b 12       	push	r11		
    9d98:	0b 4f       	mov	r15,	r11	
    9d9a:	2f 4f       	mov	@r15,	r15	
    9d9c:	0f 93       	tst	r15		
    9d9e:	04 24       	jz	$+10     	;abs 0x9da8
    9da0:	3f 90 50 00 	cmp	#80,	r15	;#0x0050
    9da4:	15 20       	jnz	$+44     	;abs 0x9dd0
    9da6:	0b 3c       	jmp	$+24     	;abs 0x9dbe
    9da8:	3d 40 64 00 	mov	#100,	r13	;#0x0064
    9dac:	0e 43       	clr	r14		
    9dae:	3f 40 a0 20 	mov	#8352,	r15	;#0x20a0
    9db2:	b0 12 d2 82 	call	#0x82d2	
    9db6:	bb 40 50 00 	mov	#80,	0(r11)	;#0x0050, 0x0000(r11)
    9dba:	00 00 
    9dbc:	0e 3c       	jmp	$+30     	;abs 0x9dda
    9dbe:	3f 40 a0 20 	mov	#8352,	r15	;#0x20a0
    9dc2:	b0 12 e4 82 	call	#0x82e4	
    9dc6:	0f 93       	tst	r15		
    9dc8:	08 24       	jz	$+18     	;abs 0x9dda
    9dca:	b0 12 2a 93 	call	#0x932a	
    9dce:	ec 3f       	jmp	$-38     	;abs 0x9da8
    9dd0:	8b 43 00 00 	mov	#0,	0(r11)	;r3 As==00, 0x0000(r11)
    9dd4:	7f 40 03 00 	mov.b	#3,	r15	;#0x0003
    9dd8:	01 3c       	jmp	$+4      	;abs 0x9ddc
    9dda:	5f 43       	mov.b	#1,	r15	;r3 As==01
    9ddc:	3b 41       	pop	r11		
    9dde:	30 41       	ret			

00009de0 <__udivhi3>:
    9de0:	7c 40 10 00 	mov.b	#16,	r12	;#0x0010
    9de4:	0d 4e       	mov	r14,	r13	
    9de6:	0e 43       	clr	r14		
    9de8:	0f 5f       	rla	r15		
    9dea:	0e 6e       	rlc	r14		
    9dec:	0e 9d       	cmp	r13,	r14	
    9dee:	02 28       	jnc	$+6      	;abs 0x9df4
    9df0:	0e 8d       	sub	r13,	r14	
    9df2:	1f d3       	bis	#1,	r15	;r3 As==01
    9df4:	1c 83       	dec	r12		
    9df6:	f8 23       	jnz	$-14     	;abs 0x9de8
    9df8:	30 41       	ret			

00009dfa <__umodhi3>:
    9dfa:	b0 12 e0 9d 	call	#0x9de0	
    9dfe:	0f 4e       	mov	r14,	r15	
    9e00:	30 41       	ret			

00009e02 <__udivsi3>:
    9e02:	2b 15       	pushm	#3,	r11	
    9e04:	79 40 20 00 	mov.b	#32,	r9	;#0x0020
    9e08:	0a 4c       	mov	r12,	r10	
    9e0a:	0b 4d       	mov	r13,	r11	
    9e0c:	0c 43       	clr	r12		
    9e0e:	0d 43       	clr	r13		
    9e10:	0e 5e       	rla	r14		
    9e12:	0f 6f       	rlc	r15		
    9e14:	0c 6c       	rlc	r12		
    9e16:	0d 6d       	rlc	r13		
    9e18:	0d 9b       	cmp	r11,	r13	
    9e1a:	06 28       	jnc	$+14     	;abs 0x9e28
    9e1c:	02 20       	jnz	$+6      	;abs 0x9e22
    9e1e:	0c 9a       	cmp	r10,	r12	
    9e20:	03 28       	jnc	$+8      	;abs 0x9e28
    9e22:	0c 8a       	sub	r10,	r12	
    9e24:	0d 7b       	subc	r11,	r13	
    9e26:	1e d3       	bis	#1,	r14	;r3 As==01
    9e28:	19 83       	dec	r9		
    9e2a:	f2 23       	jnz	$-26     	;abs 0x9e10
    9e2c:	29 17       	popm	#3,	r11	
    9e2e:	30 41       	ret			

00009e30 <__umodsi3>:
    9e30:	b0 12 02 9e 	call	#0x9e02	
    9e34:	0e 4c       	mov	r12,	r14	
    9e36:	0f 4d       	mov	r13,	r15	
    9e38:	30 41       	ret			

00009e3a <__xabi_udivmod64>:
    9e3a:	37 15       	pushm	#4,	r7	
    9e3c:	30 12 40 00 	push	#64		;#0x0040
    9e40:	04 48       	mov	r8,	r4	
    9e42:	05 49       	mov	r9,	r5	
    9e44:	06 4a       	mov	r10,	r6	
    9e46:	07 4b       	mov	r11,	r7	
    9e48:	08 43       	clr	r8		
    9e4a:	09 43       	clr	r9		
    9e4c:	0a 43       	clr	r10		
    9e4e:	0b 43       	clr	r11		
    9e50:	0c 5c       	rla	r12		
    9e52:	0d 6d       	rlc	r13		
    9e54:	0e 6e       	rlc	r14		
    9e56:	0f 6f       	rlc	r15		
    9e58:	08 68       	rlc	r8		
    9e5a:	09 69       	rlc	r9		
    9e5c:	0a 6a       	rlc	r10		
    9e5e:	0b 6b       	rlc	r11		
    9e60:	0b 97       	cmp	r7,	r11	
    9e62:	0e 28       	jnc	$+30     	;abs 0x9e80
    9e64:	08 20       	jnz	$+18     	;abs 0x9e76
    9e66:	0a 96       	cmp	r6,	r10	
    9e68:	0b 28       	jnc	$+24     	;abs 0x9e80
    9e6a:	05 20       	jnz	$+12     	;abs 0x9e76
    9e6c:	09 95       	cmp	r5,	r9	
    9e6e:	08 28       	jnc	$+18     	;abs 0x9e80
    9e70:	02 20       	jnz	$+6      	;abs 0x9e76
    9e72:	08 94       	cmp	r4,	r8	
    9e74:	05 28       	jnc	$+12     	;abs 0x9e80
    9e76:	08 84       	sub	r4,	r8	
    9e78:	09 75       	subc	r5,	r9	
    9e7a:	0a 76       	subc	r6,	r10	
    9e7c:	0b 77       	subc	r7,	r11	
    9e7e:	1c d3       	bis	#1,	r12	;r3 As==01
    9e80:	91 83 00 00 	dec	0(r1)		;0x0000(r1)
    9e84:	e5 23       	jnz	$-52     	;abs 0x9e50
    9e86:	21 53       	incd	r1		
    9e88:	34 17       	popm	#4,	r7	
    9e8a:	30 41       	ret			

00009e8c <__udivdi3>:
    9e8c:	3b 15       	pushm	#4,	r11	
    9e8e:	18 41 0a 00 	mov	10(r1),	r8	;0x000a(r1)
    9e92:	19 41 0c 00 	mov	12(r1),	r9	;0x000c(r1)
    9e96:	1a 41 0e 00 	mov	14(r1),	r10	;0x000e(r1)
    9e9a:	1b 41 10 00 	mov	16(r1),	r11	;0x0010(r1)
    9e9e:	b0 12 3a 9e 	call	#0x9e3a	
    9ea2:	38 17       	popm	#4,	r11	
    9ea4:	30 41       	ret			

00009ea6 <__umoddi3>:
    9ea6:	3b 15       	pushm	#4,	r11	
    9ea8:	18 41 0a 00 	mov	10(r1),	r8	;0x000a(r1)
    9eac:	19 41 0c 00 	mov	12(r1),	r9	;0x000c(r1)
    9eb0:	1a 41 0e 00 	mov	14(r1),	r10	;0x000e(r1)
    9eb4:	1b 41 10 00 	mov	16(r1),	r11	;0x0010(r1)
    9eb8:	b0 12 3a 9e 	call	#0x9e3a	
    9ebc:	0c 48       	mov	r8,	r12	
    9ebe:	0d 49       	mov	r9,	r13	
    9ec0:	0e 4a       	mov	r10,	r14	
    9ec2:	0f 4b       	mov	r11,	r15	
    9ec4:	38 17       	popm	#4,	r11	
    9ec6:	30 41       	ret			

00009ec8 <__udivmoddi4>:
    9ec8:	4b 15       	pushm	#5,	r11	
    9eca:	18 41 0c 00 	mov	12(r1),	r8	;0x000c(r1)
    9ece:	19 41 0e 00 	mov	14(r1),	r9	;0x000e(r1)
    9ed2:	1a 41 10 00 	mov	16(r1),	r10	;0x0010(r1)
    9ed6:	1b 41 12 00 	mov	18(r1),	r11	;0x0012(r1)
    9eda:	b0 12 3a 9e 	call	#0x9e3a	
    9ede:	17 41 14 00 	mov	20(r1),	r7	;0x0014(r1)
    9ee2:	87 48 00 00 	mov	r8,	0(r7)	;0x0000(r7)
    9ee6:	87 49 02 00 	mov	r9,	2(r7)	;0x0002(r7)
    9eea:	87 4a 04 00 	mov	r10,	4(r7)	;0x0004(r7)
    9eee:	87 4b 06 00 	mov	r11,	6(r7)	;0x0006(r7)
    9ef2:	47 17       	popm	#5,	r11	
    9ef4:	30 41       	ret			

00009ef6 <memcpy>:
    9ef6:	4b 15       	pushm	#5,	r11	
    9ef8:	0d 93       	tst	r13		
    9efa:	6d 24       	jz	$+220    	;abs 0x9fd6
    9efc:	0f 9e       	cmp	r14,	r15	
    9efe:	6b 24       	jz	$+216    	;abs 0x9fd6
    9f00:	33 2c       	jc	$+104    	;abs 0x9f68
    9f02:	0c 4e       	mov	r14,	r12	
    9f04:	0c df       	bis	r15,	r12	
    9f06:	1c f3       	and	#1,	r12	;r3 As==01
    9f08:	1b 24       	jz	$+56     	;abs 0x9f40
    9f0a:	0c 4e       	mov	r14,	r12	
    9f0c:	0c ef       	xor	r15,	r12	
    9f0e:	1c f3       	and	#1,	r12	;r3 As==01
    9f10:	07 20       	jnz	$+16     	;abs 0x9f20
    9f12:	2d 93       	cmp	#2,	r13	;r3 As==10
    9f14:	07 28       	jnc	$+16     	;abs 0x9f24
    9f16:	0b 4e       	mov	r14,	r11	
    9f18:	1b f3       	and	#1,	r11	;r3 As==01
    9f1a:	2c 43       	mov	#2,	r12	;r3 As==10
    9f1c:	0c 8b       	sub	r11,	r12	
    9f1e:	03 3c       	jmp	$+8      	;abs 0x9f26
    9f20:	0c 4d       	mov	r13,	r12	
    9f22:	01 3c       	jmp	$+4      	;abs 0x9f26
    9f24:	1c 43       	mov	#1,	r12	;r3 As==01
    9f26:	0d 8c       	sub	r12,	r13	
    9f28:	0a 4c       	mov	r12,	r10	
    9f2a:	09 4e       	mov	r14,	r9	
    9f2c:	0b 4f       	mov	r15,	r11	
    9f2e:	fb 49 00 00 	mov.b	@r9+,	0(r11)	;0x0000(r11)
    9f32:	1b 53       	inc	r11		
    9f34:	3a 53       	add	#-1,	r10	;r3 As==11
    9f36:	fb 23       	jnz	$-8      	;abs 0x9f2e
    9f38:	0b 4f       	mov	r15,	r11	
    9f3a:	0b 5c       	add	r12,	r11	
    9f3c:	0e 5c       	add	r12,	r14	
    9f3e:	01 3c       	jmp	$+4      	;abs 0x9f42
    9f40:	0b 4f       	mov	r15,	r11	
    9f42:	0c 4d       	mov	r13,	r12	
    9f44:	5c 03       	rrum	#1,	r12	
    9f46:	0b 24       	jz	$+24     	;abs 0x9f5e
    9f48:	09 4c       	mov	r12,	r9	
    9f4a:	08 4e       	mov	r14,	r8	
    9f4c:	0a 4b       	mov	r11,	r10	
    9f4e:	ba 48 00 00 	mov	@r8+,	0(r10)	;0x0000(r10)
    9f52:	2a 53       	incd	r10		
    9f54:	39 53       	add	#-1,	r9	;r3 As==11
    9f56:	fb 23       	jnz	$-8      	;abs 0x9f4e
    9f58:	5c 02       	rlam	#1,	r12	
    9f5a:	0e 5c       	add	r12,	r14	
    9f5c:	0b 5c       	add	r12,	r11	
    9f5e:	1d f3       	and	#1,	r13	;r3 As==01
    9f60:	3a 24       	jz	$+118    	;abs 0x9fd6
    9f62:	eb 4e 00 00 	mov.b	@r14,	0(r11)	;0x0000(r11)
    9f66:	37 3c       	jmp	$+112    	;abs 0x9fd6
    9f68:	0e 5d       	add	r13,	r14	
    9f6a:	0c 4f       	mov	r15,	r12	
    9f6c:	0c 5d       	add	r13,	r12	
    9f6e:	0b 4c       	mov	r12,	r11	
    9f70:	0b de       	bis	r14,	r11	
    9f72:	1b f3       	and	#1,	r11	;r3 As==01
    9f74:	1b 24       	jz	$+56     	;abs 0x9fac
    9f76:	0b 4c       	mov	r12,	r11	
    9f78:	0b ee       	xor	r14,	r11	
    9f7a:	1b f3       	and	#1,	r11	;r3 As==01
    9f7c:	06 20       	jnz	$+14     	;abs 0x9f8a
    9f7e:	3d 90 03 00 	cmp	#3,	r13	;#0x0003
    9f82:	03 28       	jnc	$+8      	;abs 0x9f8a
    9f84:	0b 4e       	mov	r14,	r11	
    9f86:	1b f3       	and	#1,	r11	;r3 As==01
    9f88:	01 3c       	jmp	$+4      	;abs 0x9f8c
    9f8a:	0b 4d       	mov	r13,	r11	
    9f8c:	0d 8b       	sub	r11,	r13	
    9f8e:	09 4e       	mov	r14,	r9	
    9f90:	0a 4c       	mov	r12,	r10	
    9f92:	08 4b       	mov	r11,	r8	
    9f94:	08 8c       	sub	r12,	r8	
    9f96:	3a 53       	add	#-1,	r10	;r3 As==11
    9f98:	39 53       	add	#-1,	r9	;r3 As==11
    9f9a:	ea 49 00 00 	mov.b	@r9,	0(r10)	;0x0000(r10)
    9f9e:	07 4a       	mov	r10,	r7	
    9fa0:	07 58       	add	r8,	r7	
    9fa2:	f9 23       	jnz	$-12     	;abs 0x9f96
    9fa4:	3b e3       	inv	r11		
    9fa6:	1b 53       	inc	r11		
    9fa8:	0c 5b       	add	r11,	r12	
    9faa:	0e 5b       	add	r11,	r14	
    9fac:	0a 4d       	mov	r13,	r10	
    9fae:	5a 03       	rrum	#1,	r10	
    9fb0:	0d 24       	jz	$+28     	;abs 0x9fcc
    9fb2:	0b 4a       	mov	r10,	r11	
    9fb4:	08 4e       	mov	r14,	r8	
    9fb6:	09 4c       	mov	r12,	r9	
    9fb8:	28 83       	decd	r8		
    9fba:	29 83       	decd	r9		
    9fbc:	a9 48 00 00 	mov	@r8,	0(r9)	;0x0000(r9)
    9fc0:	3b 53       	add	#-1,	r11	;r3 As==11
    9fc2:	fa 23       	jnz	$-10     	;abs 0x9fb8
    9fc4:	0b 8a       	sub	r10,	r11	
    9fc6:	5b 02       	rlam	#1,	r11	
    9fc8:	0e 5b       	add	r11,	r14	
    9fca:	0c 5b       	add	r11,	r12	
    9fcc:	1d f3       	and	#1,	r13	;r3 As==01
    9fce:	03 24       	jz	$+8      	;abs 0x9fd6
    9fd0:	dc 4e ff ff 	mov.b	-1(r14),-1(r12)	;0xffff(r14), 0xffff(r12)
    9fd4:	ff ff 
    9fd6:	47 17       	popm	#5,	r11	
    9fd8:	30 41       	ret			

00009fda <memset>:
    9fda:	3b 15       	pushm	#4,	r11	
    9fdc:	3d 90 06 00 	cmp	#6,	r13	;#0x0006
    9fe0:	09 2c       	jc	$+20     	;abs 0x9ff4
    9fe2:	0c 4f       	mov	r15,	r12	
    9fe4:	04 3c       	jmp	$+10     	;abs 0x9fee
    9fe6:	cc 4e 00 00 	mov.b	r14,	0(r12)	;0x0000(r12)
    9fea:	1c 53       	inc	r12		
    9fec:	3d 53       	add	#-1,	r13	;r3 As==11
    9fee:	0d 93       	tst	r13		
    9ff0:	fa 23       	jnz	$-10     	;abs 0x9fe6
    9ff2:	1f 3c       	jmp	$+64     	;abs 0xa032
    9ff4:	4e 4e       	mov.b	r14,	r14	
    9ff6:	4b 4e       	mov.b	r14,	r11	
    9ff8:	0b 93       	tst	r11		
    9ffa:	03 24       	jz	$+8      	;abs 0xa002
    9ffc:	0c 4b       	mov	r11,	r12	
    9ffe:	8c 10       	swpb	r12		
    a000:	0b dc       	bis	r12,	r11	
    a002:	1f b3       	bit	#1,	r15	;r3 As==01
    a004:	06 24       	jz	$+14     	;abs 0xa012
    a006:	3d 53       	add	#-1,	r13	;r3 As==11
    a008:	cf 4e 00 00 	mov.b	r14,	0(r15)	;0x0000(r15)
    a00c:	09 4f       	mov	r15,	r9	
    a00e:	19 53       	inc	r9		
    a010:	01 3c       	jmp	$+4      	;abs 0xa014
    a012:	09 4f       	mov	r15,	r9	
    a014:	0c 4d       	mov	r13,	r12	
    a016:	5c 03       	rrum	#1,	r12	
    a018:	0a 49       	mov	r9,	r10	
    a01a:	08 4c       	mov	r12,	r8	
    a01c:	8a 4b 00 00 	mov	r11,	0(r10)	;0x0000(r10)
    a020:	2a 53       	incd	r10		
    a022:	38 53       	add	#-1,	r8	;r3 As==11
    a024:	fb 23       	jnz	$-8      	;abs 0xa01c
    a026:	5c 02       	rlam	#1,	r12	
    a028:	0c 59       	add	r9,	r12	
    a02a:	1d f3       	and	#1,	r13	;r3 As==01
    a02c:	02 24       	jz	$+6      	;abs 0xa032
    a02e:	cc 4e 00 00 	mov.b	r14,	0(r12)	;0x0000(r12)
    a032:	38 17       	popm	#4,	r11	
    a034:	30 41       	ret			

0000a036 <printf>:
    a036:	0d 41       	mov	r1,	r13	
    a038:	2d 53       	incd	r13		
    a03a:	3e 4d       	mov	@r13+,	r14	
    a03c:	3f 40 82 9c 	mov	#-25470,r15	;#0x9c82
    a040:	b0 12 88 a2 	call	#0xa288	
    a044:	30 41       	ret			

0000a046 <vprintf>:
    a046:	0d 4e       	mov	r14,	r13	
    a048:	0e 4f       	mov	r15,	r14	
    a04a:	3f 40 82 9c 	mov	#-25470,r15	;#0x9c82
    a04e:	b0 12 88 a2 	call	#0xa288	
    a052:	30 41       	ret			

0000a054 <append>:
    a054:	1e 42 ae 20 	mov	&0x20ae,r14	
    a058:	1e 93       	cmp	#1,	r14	;r3 As==01
    a05a:	0b 38       	jl	$+24     	;abs 0xa072
    a05c:	1d 42 ac 20 	mov	&0x20ac,r13	
    a060:	cd 4f 00 00 	mov.b	r15,	0(r13)	;0x0000(r13)
    a064:	1d 53       	inc	r13		
    a066:	82 4d ac 20 	mov	r13,	&0x20ac	
    a06a:	3e 53       	add	#-1,	r14	;r3 As==11
    a06c:	82 4e ae 20 	mov	r14,	&0x20ae	
    a070:	30 41       	ret			
    a072:	3f 43       	mov	#-1,	r15	;r3 As==11
    a074:	30 41       	ret			

0000a076 <call_vuprintf>:
    a076:	1b 15       	pushm	#2,	r11	
    a078:	21 83       	decd	r1		
    a07a:	81 4e 00 00 	mov	r14,	0(r1)	;0x0000(r1)
    a07e:	1a 42 ac 20 	mov	&0x20ac,r10	
    a082:	1b 42 ae 20 	mov	&0x20ae,r11	
    a086:	0d 4e       	mov	r14,	r13	
    a088:	0e 4f       	mov	r15,	r14	
    a08a:	3f 40 54 a0 	mov	#-24492,r15	;#0xa054
    a08e:	b0 12 88 a2 	call	#0xa288	
    a092:	0f 9b       	cmp	r11,	r15	
    a094:	05 38       	jl	$+12     	;abs 0xa0a0
    a096:	0e 4a       	mov	r10,	r14	
    a098:	0e 5b       	add	r11,	r14	
    a09a:	ce 43 ff ff 	mov.b	#0,	-1(r14)	;r3 As==00, 0xffff(r14)
    a09e:	04 3c       	jmp	$+10     	;abs 0xa0a8
    a0a0:	1e 42 ac 20 	mov	&0x20ac,r14	
    a0a4:	ce 43 00 00 	mov.b	#0,	0(r14)	;r3 As==00, 0x0000(r14)
    a0a8:	21 53       	incd	r1		
    a0aa:	1a 17       	popm	#2,	r11	
    a0ac:	30 41       	ret			

0000a0ae <sprintf>:
    a0ae:	92 41 02 00 	mov	2(r1),	&0x20ac	;0x0002(r1)
    a0b2:	ac 20 
    a0b4:	b2 40 ff 7f 	mov	#32767,	&0x20ae	;#0x7fff
    a0b8:	ae 20 
    a0ba:	0e 41       	mov	r1,	r14	
    a0bc:	3e 50 06 00 	add	#6,	r14	;#0x0006
    a0c0:	1f 41 04 00 	mov	4(r1),	r15	;0x0004(r1)
    a0c4:	b0 12 76 a0 	call	#0xa076	
    a0c8:	30 41       	ret			

0000a0ca <snprintf>:
    a0ca:	92 41 02 00 	mov	2(r1),	&0x20ac	;0x0002(r1)
    a0ce:	ac 20 
    a0d0:	92 41 04 00 	mov	4(r1),	&0x20ae	;0x0004(r1)
    a0d4:	ae 20 
    a0d6:	0e 41       	mov	r1,	r14	
    a0d8:	3e 52       	add	#8,	r14	;r2 As==11
    a0da:	1f 41 06 00 	mov	6(r1),	r15	;0x0006(r1)
    a0de:	b0 12 76 a0 	call	#0xa076	
    a0e2:	30 41       	ret			

0000a0e4 <vsprintf>:
    a0e4:	0c 4e       	mov	r14,	r12	
    a0e6:	82 4f ac 20 	mov	r15,	&0x20ac	
    a0ea:	b2 40 ff 7f 	mov	#32767,	&0x20ae	;#0x7fff
    a0ee:	ae 20 
    a0f0:	0e 4d       	mov	r13,	r14	
    a0f2:	0f 4c       	mov	r12,	r15	
    a0f4:	b0 12 76 a0 	call	#0xa076	
    a0f8:	30 41       	ret			

0000a0fa <vsnprintf>:
    a0fa:	82 4f ac 20 	mov	r15,	&0x20ac	
    a0fe:	82 4e ae 20 	mov	r14,	&0x20ae	
    a102:	0e 4c       	mov	r12,	r14	
    a104:	0f 4d       	mov	r13,	r15	
    a106:	b0 12 76 a0 	call	#0xa076	
    a10a:	30 41       	ret			

0000a10c <print_field>:
    a10c:	7b 15       	pushm	#8,	r11	
    a10e:	31 82       	sub	#8,	r1	;r2 As==11
    a110:	08 4f       	mov	r15,	r8	
    a112:	81 4e 04 00 	mov	r14,	4(r1)	;0x0004(r1)
    a116:	09 4d       	mov	r13,	r9	
    a118:	1f 41 1a 00 	mov	26(r1),	r15	;0x001a(r1)
    a11c:	1d 41 1c 00 	mov	28(r1),	r13	;0x001c(r1)
    a120:	4c 4d       	mov.b	r13,	r12	
    a122:	04 4d       	mov	r13,	r4	
    a124:	84 10       	swpb	r4		
    a126:	45 44       	mov.b	r4,	r5	
    a128:	4e 4f       	mov.b	r15,	r14	
    a12a:	7e b0 40 00 	bit.b	#64,	r14	;#0x0040
    a12e:	11 24       	jz	$+36     	;abs 0xa152
    a130:	f1 40 30 00 	mov.b	#48,	0(r1)	;#0x0030, 0x0000(r1)
    a134:	00 00 
    a136:	0e 4f       	mov	r15,	r14	
    a138:	8e 10       	swpb	r14		
    a13a:	5e f3       	and.b	#1,	r14	;r3 As==01
    a13c:	03 24       	jz	$+8      	;abs 0xa144
    a13e:	7e 40 58 00 	mov.b	#88,	r14	;#0x0058
    a142:	02 3c       	jmp	$+6      	;abs 0xa148
    a144:	7e 40 78 00 	mov.b	#120,	r14	;#0x0078
    a148:	c1 4e 01 00 	mov.b	r14,	1(r1)	;0x0001(r1)
    a14c:	0c 41       	mov	r1,	r12	
    a14e:	2c 53       	incd	r12		
    a150:	0f 3c       	jmp	$+32     	;abs 0xa170
    a152:	7e f0 20 00 	and.b	#32,	r14	;#0x0020
    a156:	04 24       	jz	$+10     	;abs 0xa160
    a158:	f1 40 30 00 	mov.b	#48,	0(r1)	;#0x0030, 0x0000(r1)
    a15c:	00 00 
    a15e:	04 3c       	jmp	$+10     	;abs 0xa168
    a160:	4c 93       	tst.b	r12		
    a162:	05 24       	jz	$+12     	;abs 0xa16e
    a164:	c1 4d 00 00 	mov.b	r13,	0(r1)	;0x0000(r1)
    a168:	0c 41       	mov	r1,	r12	
    a16a:	1c 53       	inc	r12		
    a16c:	01 3c       	jmp	$+4      	;abs 0xa170
    a16e:	0c 41       	mov	r1,	r12	
    a170:	0a 4c       	mov	r12,	r10	
    a172:	8c 10       	swpb	r12		
    a174:	8c 11       	sxt	r12		
    a176:	8c 10       	swpb	r12		
    a178:	8c 11       	sxt	r12		
    a17a:	0b 4c       	mov	r12,	r11	
    a17c:	06 41       	mov	r1,	r6	
    a17e:	0c 41       	mov	r1,	r12	
    a180:	8c 10       	swpb	r12		
    a182:	8c 11       	sxt	r12		
    a184:	8c 10       	swpb	r12		
    a186:	8c 11       	sxt	r12		
    a188:	07 4c       	mov	r12,	r7	
    a18a:	0a 86       	sub	r6,	r10	
    a18c:	0b 77       	subc	r7,	r11	
    a18e:	0e 4f       	mov	r15,	r14	
    a190:	8e 10       	swpb	r14		
    a192:	c1 4e 02 00 	mov.b	r14,	2(r1)	;0x0002(r1)
    a196:	6e f2       	and.b	#4,	r14	;r2 As==10
    a198:	02 24       	jz	$+6      	;abs 0xa19e
    a19a:	07 45       	mov	r5,	r7	
    a19c:	01 3c       	jmp	$+4      	;abs 0xa1a0
    a19e:	37 43       	mov	#-1,	r7	;r3 As==11
    a1a0:	4f 4f       	mov.b	r15,	r15	
    a1a2:	7f b0 10 00 	bit.b	#16,	r15	;#0x0010
    a1a6:	3c 20       	jnz	$+122    	;abs 0xa220
    a1a8:	1d 41 04 00 	mov	4(r1),	r13	;0x0004(r1)
    a1ac:	3d 53       	add	#-1,	r13	;r3 As==11
    a1ae:	1d 53       	inc	r13		
    a1b0:	cd 93 00 00 	tst.b	0(r13)		;0x0000(r13)
    a1b4:	fc 23       	jnz	$-6      	;abs 0xa1ae
    a1b6:	1d 81 04 00 	sub	4(r1),	r13	;0x0004(r1)
    a1ba:	09 9a       	cmp	r10,	r9	
    a1bc:	02 28       	jnc	$+6      	;abs 0xa1c2
    a1be:	09 8a       	sub	r10,	r9	
    a1c0:	01 3c       	jmp	$+4      	;abs 0xa1c4
    a1c2:	09 43       	clr	r9		
    a1c4:	e1 b3 02 00 	bit.b	#2,	2(r1)	;r3 As==10, 0x0002(r1)
    a1c8:	05 24       	jz	$+12     	;abs 0xa1d4
    a1ca:	09 95       	cmp	r5,	r9	
    a1cc:	02 28       	jnc	$+6      	;abs 0xa1d2
    a1ce:	09 85       	sub	r5,	r9	
    a1d0:	01 3c       	jmp	$+4      	;abs 0xa1d4
    a1d2:	09 43       	clr	r9		
    a1d4:	05 4d       	mov	r13,	r5	
    a1d6:	07 9d       	cmp	r13,	r7	
    a1d8:	01 2c       	jc	$+4      	;abs 0xa1dc
    a1da:	05 47       	mov	r7,	r5	
    a1dc:	4f 93       	tst.b	r15		
    a1de:	0d 38       	jl	$+28     	;abs 0xa1fa
    a1e0:	f1 40 20 00 	mov.b	#32,	6(r1)	;#0x0020, 0x0006(r1)
    a1e4:	06 00 
    a1e6:	06 43       	clr	r6		
    a1e8:	0b 43       	clr	r11		
    a1ea:	0e 3c       	jmp	$+30     	;abs 0xa208
    a1ec:	0f 41       	mov	r1,	r15	
    a1ee:	0f 56       	add	r6,	r15	
    a1f0:	6f 4f       	mov.b	@r15,	r15	
    a1f2:	8f 11       	sxt	r15		
    a1f4:	16 53       	inc	r6		
    a1f6:	88 12       	call	r8		
    a1f8:	01 3c       	jmp	$+4      	;abs 0xa1fc
    a1fa:	06 43       	clr	r6		
    a1fc:	06 9a       	cmp	r10,	r6	
    a1fe:	f6 3b       	jl	$-18     	;abs 0xa1ec
    a200:	0b 4a       	mov	r10,	r11	
    a202:	f1 40 30 00 	mov.b	#48,	6(r1)	;#0x0030, 0x0006(r1)
    a206:	06 00 
    a208:	05 8b       	sub	r11,	r5	
    a20a:	05 3c       	jmp	$+12     	;abs 0xa216
    a20c:	5f 41 06 00 	mov.b	6(r1),	r15	;0x0006(r1)
    a210:	8f 11       	sxt	r15		
    a212:	88 12       	call	r8		
    a214:	1b 53       	inc	r11		
    a216:	0f 45       	mov	r5,	r15	
    a218:	0f 5b       	add	r11,	r15	
    a21a:	0f 99       	cmp	r9,	r15	
    a21c:	f7 2b       	jnc	$-16     	;abs 0xa20c
    a21e:	0a 3c       	jmp	$+22     	;abs 0xa234
    a220:	06 43       	clr	r6		
    a222:	0b 43       	clr	r11		
    a224:	07 3c       	jmp	$+16     	;abs 0xa234
    a226:	1b 53       	inc	r11		
    a228:	0f 41       	mov	r1,	r15	
    a22a:	0f 56       	add	r6,	r15	
    a22c:	6f 4f       	mov.b	@r15,	r15	
    a22e:	8f 11       	sxt	r15		
    a230:	16 53       	inc	r6		
    a232:	88 12       	call	r8		
    a234:	06 9a       	cmp	r10,	r6	
    a236:	f7 3b       	jl	$-16     	;abs 0xa226
    a238:	e1 b3 02 00 	bit.b	#2,	2(r1)	;r3 As==10, 0x0002(r1)
    a23c:	02 24       	jz	$+6      	;abs 0xa242
    a23e:	4a 44       	mov.b	r4,	r10	
    a240:	08 3c       	jmp	$+18     	;abs 0xa252
    a242:	1a 41 04 00 	mov	4(r1),	r10	;0x0004(r1)
    a246:	0a 8b       	sub	r11,	r10	
    a248:	0d 3c       	jmp	$+28     	;abs 0xa264
    a24a:	3f 40 30 00 	mov	#48,	r15	;#0x0030
    a24e:	88 12       	call	r8		
    a250:	7a 53       	add.b	#-1,	r10	;r3 As==11
    a252:	4a 93       	tst.b	r10		
    a254:	fa 23       	jnz	$-10     	;abs 0xa24a
    a256:	44 44       	mov.b	r4,	r4	
    a258:	0b 54       	add	r4,	r11	
    a25a:	f3 3f       	jmp	$-24     	;abs 0xa242
    a25c:	37 53       	add	#-1,	r7	;r3 As==11
    a25e:	8f 11       	sxt	r15		
    a260:	88 12       	call	r8		
    a262:	1b 53       	inc	r11		
    a264:	0f 4a       	mov	r10,	r15	
    a266:	0f 5b       	add	r11,	r15	
    a268:	6f 4f       	mov.b	@r15,	r15	
    a26a:	4f 93       	tst.b	r15		
    a26c:	07 24       	jz	$+16     	;abs 0xa27c
    a26e:	07 93       	tst	r7		
    a270:	f5 23       	jnz	$-20     	;abs 0xa25c
    a272:	04 3c       	jmp	$+10     	;abs 0xa27c
    a274:	3f 40 20 00 	mov	#32,	r15	;#0x0020
    a278:	88 12       	call	r8		
    a27a:	1b 53       	inc	r11		
    a27c:	0b 99       	cmp	r9,	r11	
    a27e:	fa 2b       	jnc	$-10     	;abs 0xa274
    a280:	0f 4b       	mov	r11,	r15	
    a282:	31 52       	add	#8,	r1	;r2 As==11
    a284:	74 17       	popm	#8,	r11	
    a286:	30 41       	ret			

0000a288 <vuprintf>:
    a288:	7b 15       	pushm	#8,	r11	
    a28a:	31 50 ac ff 	add	#-84,	r1	;#0xffac
    a28e:	81 4f 3a 00 	mov	r15,	58(r1)	;0x003a(r1)
    a292:	81 4d 1e 00 	mov	r13,	30(r1)	;0x001e(r1)
    a296:	81 4e 40 00 	mov	r14,	64(r1)	;0x0040(r1)
    a29a:	c1 43 2f 00 	mov.b	#0,	47(r1)	;r3 As==00, 0x002f(r1)
    a29e:	c1 43 2b 00 	mov.b	#0,	43(r1)	;r3 As==00, 0x002b(r1)
    a2a2:	c1 43 2e 00 	mov.b	#0,	46(r1)	;r3 As==00, 0x002e(r1)
    a2a6:	c1 43 2a 00 	mov.b	#0,	42(r1)	;r3 As==00, 0x002a(r1)
    a2aa:	81 43 30 00 	mov	#0,	48(r1)	;r3 As==00, 0x0030(r1)
    a2ae:	81 43 20 00 	mov	#0,	32(r1)	;r3 As==00, 0x0020(r1)
    a2b2:	08 43       	clr	r8		
    a2b4:	81 43 2c 00 	mov	#0,	44(r1)	;r3 As==00, 0x002c(r1)
    a2b8:	0f 41       	mov	r1,	r15	
    a2ba:	3f 50 1c 00 	add	#28,	r15	;#0x001c
    a2be:	81 4f 1c 00 	mov	r15,	28(r1)	;0x001c(r1)
    a2c2:	0c 4e       	mov	r14,	r12	
    a2c4:	14 41 22 00 	mov	34(r1),	r4	;0x0022(r1)
    a2c8:	15 41 24 00 	mov	36(r1),	r5	;0x0024(r1)
    a2cc:	16 41 26 00 	mov	38(r1),	r6	;0x0026(r1)
    a2d0:	17 41 28 00 	mov	40(r1),	r7	;0x0028(r1)
    a2d4:	30 40 0e a9 	br	#0xa90e	
    a2d8:	0f 4c       	mov	r12,	r15	
    a2da:	1f 53       	inc	r15		
    a2dc:	81 4f 42 00 	mov	r15,	66(r1)	;0x0042(r1)
    a2e0:	08 93       	tst	r8		
    a2e2:	1f 20       	jnz	$+64     	;abs 0xa322
    a2e4:	7e 90 25 00 	cmp.b	#37,	r14	;#0x0025
    a2e8:	14 20       	jnz	$+42     	;abs 0xa312
    a2ea:	81 43 00 00 	mov	#0,	0(r1)	;r3 As==00, 0x0000(r1)
    a2ee:	81 43 02 00 	mov	#0,	2(r1)	;r3 As==00, 0x0002(r1)
    a2f2:	81 4c 40 00 	mov	r12,	64(r1)	;0x0040(r1)
    a2f6:	c1 43 2f 00 	mov.b	#0,	47(r1)	;r3 As==00, 0x002f(r1)
    a2fa:	c1 43 2b 00 	mov.b	#0,	43(r1)	;r3 As==00, 0x002b(r1)
    a2fe:	c1 43 2e 00 	mov.b	#0,	46(r1)	;r3 As==00, 0x002e(r1)
    a302:	c1 43 2a 00 	mov.b	#0,	42(r1)	;r3 As==00, 0x002a(r1)
    a306:	81 43 30 00 	mov	#0,	48(r1)	;r3 As==00, 0x0030(r1)
    a30a:	30 40 04 a9 	br	#0xa904	
    a30e:	81 48 1e 00 	mov	r8,	30(r1)	;0x001e(r1)
    a312:	8e 11       	sxt	r14		
    a314:	0f 4e       	mov	r14,	r15	
    a316:	91 12 3c 00 	call	60(r1)		;0x003c(r1)
    a31a:	91 53 2c 00 	inc	44(r1)		;0x002c(r1)
    a31e:	30 40 e8 a8 	br	#0xa8e8	
    a322:	7e 90 63 00 	cmp.b	#99,	r14	;#0x0063
    a326:	cb 24       	jz	$+408    	;abs 0xa4be
    a328:	7e 90 64 00 	cmp.b	#100,	r14	;#0x0064
    a32c:	27 34       	jge	$+80     	;abs 0xa37c
    a32e:	7e 90 30 00 	cmp.b	#48,	r14	;#0x0030
    a332:	9c 24       	jz	$+314    	;abs 0xa46c
    a334:	7e 90 31 00 	cmp.b	#49,	r14	;#0x0031
    a338:	1a 34       	jge	$+54     	;abs 0xa36e
    a33a:	7e 90 2a 00 	cmp.b	#42,	r14	;#0x002a
    a33e:	7b 24       	jz	$+248    	;abs 0xa436
    a340:	7e 90 2b 00 	cmp.b	#43,	r14	;#0x002b
    a344:	0a 34       	jge	$+22     	;abs 0xa35a
    a346:	7e 90 23 00 	cmp.b	#35,	r14	;#0x0023
    a34a:	42 24       	jz	$+134    	;abs 0xa3d0
    a34c:	7e 90 25 00 	cmp.b	#37,	r14	;#0x0025
    a350:	e0 27       	jz	$-62     	;abs 0xa312
    a352:	7e 90 20 00 	cmp.b	#32,	r14	;#0x0020
    a356:	32 20       	jnz	$+102    	;abs 0xa3bc
    a358:	5a 3c       	jmp	$+182    	;abs 0xa40e
    a35a:	7e 90 2d 00 	cmp.b	#45,	r14	;#0x002d
    a35e:	4d 24       	jz	$+156    	;abs 0xa3fa
    a360:	7e 90 2e 00 	cmp.b	#46,	r14	;#0x002e
    a364:	5f 24       	jz	$+192    	;abs 0xa424
    a366:	7e 90 2b 00 	cmp.b	#43,	r14	;#0x002b
    a36a:	28 20       	jnz	$+82     	;abs 0xa3bc
    a36c:	4b 3c       	jmp	$+152    	;abs 0xa404
    a36e:	7e 90 3a 00 	cmp.b	#58,	r14	;#0x003a
    a372:	94 38       	jl	$+298    	;abs 0xa49c
    a374:	7e 90 58 00 	cmp.b	#88,	r14	;#0x0058
    a378:	21 20       	jnz	$+68     	;abs 0xa3bc
    a37a:	f8 3c       	jmp	$+498    	;abs 0xa56c
    a37c:	7e 90 6f 00 	cmp.b	#111,	r14	;#0x006f
    a380:	24 24       	jz	$+74     	;abs 0xa3ca
    a382:	7e 90 70 00 	cmp.b	#112,	r14	;#0x0070
    a386:	0a 34       	jge	$+22     	;abs 0xa39c
    a388:	7e 90 69 00 	cmp.b	#105,	r14	;#0x0069
    a38c:	f2 24       	jz	$+486    	;abs 0xa572
    a38e:	7e 90 6c 00 	cmp.b	#108,	r14	;#0x006c
    a392:	22 24       	jz	$+70     	;abs 0xa3d8
    a394:	7e 90 64 00 	cmp.b	#100,	r14	;#0x0064
    a398:	11 20       	jnz	$+36     	;abs 0xa3bc
    a39a:	eb 3c       	jmp	$+472    	;abs 0xa572
    a39c:	7e 90 73 00 	cmp.b	#115,	r14	;#0x0073
    a3a0:	a1 24       	jz	$+324    	;abs 0xa4e4
    a3a2:	7e 90 74 00 	cmp.b	#116,	r14	;#0x0074
    a3a6:	04 34       	jge	$+10     	;abs 0xa3b0
    a3a8:	7e 90 70 00 	cmp.b	#112,	r14	;#0x0070
    a3ac:	07 20       	jnz	$+16     	;abs 0xa3bc
    a3ae:	c5 3c       	jmp	$+396    	;abs 0xa53a
    a3b0:	7e 90 75 00 	cmp.b	#117,	r14	;#0x0075
    a3b4:	e0 24       	jz	$+450    	;abs 0xa576
    a3b6:	7e 90 78 00 	cmp.b	#120,	r14	;#0x0078
    a3ba:	e1 24       	jz	$+452    	;abs 0xa57e
    a3bc:	1a 41 40 00 	mov	64(r1),	r10	;0x0040(r1)
    a3c0:	19 41 2c 00 	mov	44(r1),	r9	;0x002c(r1)
    a3c4:	09 8a       	sub	r10,	r9	
    a3c6:	30 40 d6 a8 	br	#0xa8d6	
    a3ca:	b1 42 22 00 	mov	#8,	34(r1)	;r2 As==11, 0x0022(r1)
    a3ce:	da 3c       	jmp	$+438    	;abs 0xa584
    a3d0:	f1 d2 00 00 	bis.b	#8,	0(r1)	;r2 As==11, 0x0000(r1)
    a3d4:	30 40 08 a9 	br	#0xa908	
    a3d8:	6c 41       	mov.b	@r1,	r12	
    a3da:	5c f3       	and.b	#1,	r12	;r3 As==01
    a3dc:	69 41       	mov.b	@r1,	r9	
    a3de:	08 24       	jz	$+18     	;abs 0xa3f0
    a3e0:	4e 49       	mov.b	r9,	r14	
    a3e2:	7e f0 fe ff 	and.b	#-2,	r14	;#0xfffe
    a3e6:	6e d3       	bis.b	#2,	r14	;r3 As==10
    a3e8:	c1 4e 00 00 	mov.b	r14,	0(r1)	;0x0000(r1)
    a3ec:	30 40 08 a9 	br	#0xa908	
    a3f0:	59 d3       	bis.b	#1,	r9	;r3 As==01
    a3f2:	c1 49 00 00 	mov.b	r9,	0(r1)	;0x0000(r1)
    a3f6:	30 40 08 a9 	br	#0xa908	
    a3fa:	f1 d0 10 00 	bis.b	#16,	0(r1)	;#0x0010, 0x0000(r1)
    a3fe:	00 00 
    a400:	30 40 08 a9 	br	#0xa908	
    a404:	f1 40 2b 00 	mov.b	#43,	2(r1)	;#0x002b, 0x0002(r1)
    a408:	02 00 
    a40a:	30 40 08 a9 	br	#0xa908	
    a40e:	f1 90 2b 00 	cmp.b	#43,	2(r1)	;#0x002b, 0x0002(r1)
    a412:	02 00 
    a414:	02 20       	jnz	$+6      	;abs 0xa41a
    a416:	30 40 08 a9 	br	#0xa908	
    a41a:	f1 40 20 00 	mov.b	#32,	2(r1)	;#0x0020, 0x0002(r1)
    a41e:	02 00 
    a420:	30 40 08 a9 	br	#0xa908	
    a424:	c1 93 2a 00 	tst.b	42(r1)		;0x002a(r1)
    a428:	02 24       	jz	$+6      	;abs 0xa42e
    a42a:	30 40 ec a8 	br	#0xa8ec	
    a42e:	d1 43 2e 00 	mov.b	#1,	46(r1)	;r3 As==01, 0x002e(r1)
    a432:	30 40 08 a9 	br	#0xa908	
    a436:	1c 41 1e 00 	mov	30(r1),	r12	;0x001e(r1)
    a43a:	2c 53       	incd	r12		
    a43c:	1f 41 1e 00 	mov	30(r1),	r15	;0x001e(r1)
    a440:	2e 4f       	mov	@r15,	r14	
    a442:	0e 93       	tst	r14		
    a444:	03 38       	jl	$+8      	;abs 0xa44c
    a446:	81 4e 20 00 	mov	r14,	32(r1)	;0x0020(r1)
    a44a:	0d 3c       	jmp	$+28     	;abs 0xa466
    a44c:	c1 93 2e 00 	tst.b	46(r1)		;0x002e(r1)
    a450:	02 24       	jz	$+6      	;abs 0xa456
    a452:	30 40 fc a8 	br	#0xa8fc	
    a456:	f1 d0 10 00 	bis.b	#16,	0(r1)	;#0x0010, 0x0000(r1)
    a45a:	00 00 
    a45c:	3e e3       	inv	r14		
    a45e:	81 4e 20 00 	mov	r14,	32(r1)	;0x0020(r1)
    a462:	91 53 20 00 	inc	32(r1)		;0x0020(r1)
    a466:	81 4c 1e 00 	mov	r12,	30(r1)	;0x001e(r1)
    a46a:	25 3c       	jmp	$+76     	;abs 0xa4b6
    a46c:	81 93 20 00 	tst	32(r1)		;0x0020(r1)
    a470:	15 20       	jnz	$+44     	;abs 0xa49c
    a472:	c1 93 2e 00 	tst.b	46(r1)		;0x002e(r1)
    a476:	12 20       	jnz	$+38     	;abs 0xa49c
    a478:	6c 41       	mov.b	@r1,	r12	
    a47a:	7c f0 10 00 	and.b	#16,	r12	;#0x0010
    a47e:	5e 43       	mov.b	#1,	r14	;r3 As==01
    a480:	01 24       	jz	$+4      	;abs 0xa484
    a482:	4e 43       	clr.b	r14		
    a484:	4e 4e       	mov.b	r14,	r14	
    a486:	0e 11       	rra	r14		
    a488:	0e 43       	clr	r14		
    a48a:	4e 10       	rrc.b	r14		
    a48c:	6c 41       	mov.b	@r1,	r12	
    a48e:	7c f0 7f 00 	and.b	#127,	r12	;#0x007f
    a492:	4c de       	bis.b	r14,	r12	
    a494:	c1 4c 00 00 	mov.b	r12,	0(r1)	;0x0000(r1)
    a498:	30 40 08 a9 	br	#0xa908	
    a49c:	1c 41 20 00 	mov	32(r1),	r12	;0x0020(r1)
    a4a0:	5c 02       	rlam	#1,	r12	
    a4a2:	1f 41 20 00 	mov	32(r1),	r15	;0x0020(r1)
    a4a6:	5f 0a       	rlam	#3,	r15	
    a4a8:	0f 5c       	add	r12,	r15	
    a4aa:	3f 50 d0 ff 	add	#-48,	r15	;#0xffd0
    a4ae:	8e 11       	sxt	r14		
    a4b0:	0f 5e       	add	r14,	r15	
    a4b2:	81 4f 20 00 	mov	r15,	32(r1)	;0x0020(r1)
    a4b6:	d1 43 2a 00 	mov.b	#1,	42(r1)	;r3 As==01, 0x002a(r1)
    a4ba:	30 40 08 a9 	br	#0xa908	
    a4be:	18 41 1e 00 	mov	30(r1),	r8	;0x001e(r1)
    a4c2:	28 53       	incd	r8		
    a4c4:	1f 41 1e 00 	mov	30(r1),	r15	;0x001e(r1)
    a4c8:	6e 4f       	mov.b	@r15,	r14	
    a4ca:	c1 93 2e 00 	tst.b	46(r1)		;0x002e(r1)
    a4ce:	03 20       	jnz	$+8      	;abs 0xa4d6
    a4d0:	c1 93 2a 00 	tst.b	42(r1)		;0x002a(r1)
    a4d4:	1c 27       	jz	$-454    	;abs 0xa30e
    a4d6:	c1 4e 04 00 	mov.b	r14,	4(r1)	;0x0004(r1)
    a4da:	c1 43 05 00 	mov.b	#0,	5(r1)	;r3 As==00, 0x0005(r1)
    a4de:	0e 41       	mov	r1,	r14	
    a4e0:	2e 52       	add	#4,	r14	;r2 As==10
    a4e2:	06 3c       	jmp	$+14     	;abs 0xa4f0
    a4e4:	18 41 1e 00 	mov	30(r1),	r8	;0x001e(r1)
    a4e8:	28 53       	incd	r8		
    a4ea:	1f 41 1e 00 	mov	30(r1),	r15	;0x001e(r1)
    a4ee:	2e 4f       	mov	@r15,	r14	
    a4f0:	c1 93 2e 00 	tst.b	46(r1)		;0x002e(r1)
    a4f4:	07 24       	jz	$+16     	;abs 0xa504
    a4f6:	e1 d2 01 00 	bis.b	#4,	1(r1)	;r2 As==10, 0x0001(r1)
    a4fa:	1f 41 20 00 	mov	32(r1),	r15	;0x0020(r1)
    a4fe:	c1 4f 03 00 	mov.b	r15,	3(r1)	;0x0003(r1)
    a502:	06 3c       	jmp	$+14     	;abs 0xa510
    a504:	c1 93 2a 00 	tst.b	42(r1)		;0x002a(r1)
    a508:	03 24       	jz	$+8      	;abs 0xa510
    a50a:	91 41 20 00 	mov	32(r1),	48(r1)	;0x0020(r1), 0x0030(r1)
    a50e:	30 00 
    a510:	0e 93       	tst	r14		
    a512:	02 20       	jnz	$+6      	;abs 0xa518
    a514:	3e 40 0a ae 	mov	#-20982,r14	;#0xae0a
    a518:	11 12 04 00 	push	4(r1)		;0x0004(r1)
    a51c:	11 12 04 00 	push	4(r1)		;0x0004(r1)
    a520:	1d 41 34 00 	mov	52(r1),	r13	;0x0034(r1)
    a524:	1f 41 3e 00 	mov	62(r1),	r15	;0x003e(r1)
    a528:	b0 12 0c a1 	call	#0xa10c	
    a52c:	21 52       	add	#4,	r1	;r2 As==10
    a52e:	81 5f 2c 00 	add	r15,	44(r1)	;0x002c(r1)
    a532:	81 48 1e 00 	mov	r8,	30(r1)	;0x001e(r1)
    a536:	30 40 e8 a8 	br	#0xa8e8	
    a53a:	18 41 1e 00 	mov	30(r1),	r8	;0x001e(r1)
    a53e:	28 53       	incd	r8		
    a540:	1f 41 1e 00 	mov	30(r1),	r15	;0x001e(r1)
    a544:	2e 4f       	mov	@r15,	r14	
    a546:	04 4e       	mov	r14,	r4	
    a548:	5c 43       	mov.b	#1,	r12	;r3 As==01
    a54a:	0e 93       	tst	r14		
    a54c:	01 20       	jnz	$+4      	;abs 0xa550
    a54e:	4c 43       	clr.b	r12		
    a550:	1c f3       	and	#1,	r12	;r3 As==01
    a552:	5c 0a       	rlam	#3,	r12	
    a554:	6e 41       	mov.b	@r1,	r14	
    a556:	7e f0 f7 ff 	and.b	#-9,	r14	;#0xfff7
    a55a:	4e dc       	bis.b	r12,	r14	
    a55c:	c1 4e 00 00 	mov.b	r14,	0(r1)	;0x0000(r1)
    a560:	81 48 1e 00 	mov	r8,	30(r1)	;0x001e(r1)
    a564:	b1 40 10 00 	mov	#16,	34(r1)	;#0x0010, 0x0022(r1)
    a568:	22 00 
    a56a:	56 3c       	jmp	$+174    	;abs 0xa618
    a56c:	d1 d3 01 00 	bis.b	#1,	1(r1)	;r3 As==01, 0x0001(r1)
    a570:	06 3c       	jmp	$+14     	;abs 0xa57e
    a572:	e1 d2 00 00 	bis.b	#4,	0(r1)	;r2 As==10, 0x0000(r1)
    a576:	b1 40 0a 00 	mov	#10,	34(r1)	;#0x000a, 0x0022(r1)
    a57a:	22 00 
    a57c:	03 3c       	jmp	$+8      	;abs 0xa584
    a57e:	b1 40 10 00 	mov	#16,	34(r1)	;#0x0010, 0x0022(r1)
    a582:	22 00 
    a584:	6b 41       	mov.b	@r1,	r11	
    a586:	6b b3       	bit.b	#2,	r11	;r3 As==10
    a588:	24 24       	jz	$+74     	;abs 0xa5d2
    a58a:	1e 41 1e 00 	mov	30(r1),	r14	;0x001e(r1)
    a58e:	3e 52       	add	#8,	r14	;r2 As==11
    a590:	1f 41 1e 00 	mov	30(r1),	r15	;0x001e(r1)
    a594:	29 4f       	mov	@r15,	r9	
    a596:	18 4f 02 00 	mov	2(r15),	r8	;0x0002(r15)
    a59a:	1d 4f 04 00 	mov	4(r15),	r13	;0x0004(r15)
    a59e:	1b 4f 06 00 	mov	6(r15),	r11	;0x0006(r15)
    a5a2:	04 49       	mov	r9,	r4	
    a5a4:	05 48       	mov	r8,	r5	
    a5a6:	06 4d       	mov	r13,	r6	
    a5a8:	07 4b       	mov	r11,	r7	
    a5aa:	d1 43 2b 00 	mov.b	#1,	43(r1)	;r3 As==01, 0x002b(r1)
    a5ae:	09 93       	tst	r9		
    a5b0:	06 20       	jnz	$+14     	;abs 0xa5be
    a5b2:	08 93       	tst	r8		
    a5b4:	04 20       	jnz	$+10     	;abs 0xa5be
    a5b6:	0d 93       	tst	r13		
    a5b8:	02 20       	jnz	$+6      	;abs 0xa5be
    a5ba:	0b 93       	tst	r11		
    a5bc:	02 24       	jz	$+6      	;abs 0xa5c2
    a5be:	c1 43 2b 00 	mov.b	#0,	43(r1)	;r3 As==00, 0x002b(r1)
    a5c2:	0b 5b       	rla	r11		
    a5c4:	0b 43       	clr	r11		
    a5c6:	0b 6b       	rlc	r11		
    a5c8:	c1 4b 2f 00 	mov.b	r11,	47(r1)	;0x002f(r1)
    a5cc:	81 4e 1e 00 	mov	r14,	30(r1)	;0x001e(r1)
    a5d0:	23 3c       	jmp	$+72     	;abs 0xa618
    a5d2:	5b f3       	and.b	#1,	r11	;r3 As==01
    a5d4:	18 41 1e 00 	mov	30(r1),	r8	;0x001e(r1)
    a5d8:	0d 24       	jz	$+28     	;abs 0xa5f4
    a5da:	28 52       	add	#4,	r8	;r2 As==10
    a5dc:	1f 41 1e 00 	mov	30(r1),	r15	;0x001e(r1)
    a5e0:	29 4f       	mov	@r15,	r9	
    a5e2:	1b 4f 02 00 	mov	2(r15),	r11	;0x0002(r15)
    a5e6:	04 49       	mov	r9,	r4	
    a5e8:	05 4b       	mov	r11,	r5	
    a5ea:	d1 43 2b 00 	mov.b	#1,	43(r1)	;r3 As==01, 0x002b(r1)
    a5ee:	09 93       	tst	r9		
    a5f0:	0a 20       	jnz	$+22     	;abs 0xa606
    a5f2:	07 3c       	jmp	$+16     	;abs 0xa602
    a5f4:	28 53       	incd	r8		
    a5f6:	1f 41 1e 00 	mov	30(r1),	r15	;0x001e(r1)
    a5fa:	2b 4f       	mov	@r15,	r11	
    a5fc:	04 4b       	mov	r11,	r4	
    a5fe:	d1 43 2b 00 	mov.b	#1,	43(r1)	;r3 As==01, 0x002b(r1)
    a602:	0b 93       	tst	r11		
    a604:	02 24       	jz	$+6      	;abs 0xa60a
    a606:	c1 43 2b 00 	mov.b	#0,	43(r1)	;r3 As==00, 0x002b(r1)
    a60a:	0b 5b       	rla	r11		
    a60c:	0b 43       	clr	r11		
    a60e:	0b 6b       	rlc	r11		
    a610:	c1 4b 2f 00 	mov.b	r11,	47(r1)	;0x002f(r1)
    a614:	81 48 1e 00 	mov	r8,	30(r1)	;0x001e(r1)
    a618:	f1 b2 00 00 	bit.b	#8,	0(r1)	;r2 As==11, 0x0000(r1)
    a61c:	12 24       	jz	$+38     	;abs 0xa642
    a61e:	c1 93 2b 00 	tst.b	43(r1)		;0x002b(r1)
    a622:	0f 20       	jnz	$+32     	;abs 0xa642
    a624:	69 41       	mov.b	@r1,	r9	
    a626:	b1 90 10 00 	cmp	#16,	34(r1)	;#0x0010, 0x0022(r1)
    a62a:	22 00 
    a62c:	03 20       	jnz	$+8      	;abs 0xa634
    a62e:	79 d0 40 00 	bis.b	#64,	r9	;#0x0040
    a632:	05 3c       	jmp	$+12     	;abs 0xa63e
    a634:	b1 92 22 00 	cmp	#8,	34(r1)	;r2 As==11, 0x0022(r1)
    a638:	04 20       	jnz	$+10     	;abs 0xa642
    a63a:	79 d0 20 00 	bis.b	#32,	r9	;#0x0020
    a63e:	c1 49 00 00 	mov.b	r9,	0(r1)	;0x0000(r1)
    a642:	69 41       	mov.b	@r1,	r9	
    a644:	69 b2       	bit.b	#4,	r9	;r2 As==10
    a646:	20 24       	jz	$+66     	;abs 0xa688
    a648:	c1 93 2f 00 	tst.b	47(r1)		;0x002f(r1)
    a64c:	1d 24       	jz	$+60     	;abs 0xa688
    a64e:	f1 40 2d 00 	mov.b	#45,	2(r1)	;#0x002d, 0x0002(r1)
    a652:	02 00 
    a654:	69 b3       	bit.b	#2,	r9	;r3 As==10
    a656:	09 24       	jz	$+20     	;abs 0xa66a
    a658:	34 e3       	inv	r4		
    a65a:	35 e3       	inv	r5		
    a65c:	36 e3       	inv	r6		
    a65e:	37 e3       	inv	r7		
    a660:	14 53       	inc	r4		
    a662:	05 63       	adc	r5		
    a664:	06 63       	adc	r6		
    a666:	07 63       	adc	r7		
    a668:	0f 3c       	jmp	$+32     	;abs 0xa688
    a66a:	59 b3       	bit.b	#1,	r9	;r3 As==01
    a66c:	09 24       	jz	$+20     	;abs 0xa680
    a66e:	0a 44       	mov	r4,	r10	
    a670:	0b 45       	mov	r5,	r11	
    a672:	3a e3       	inv	r10		
    a674:	3b e3       	inv	r11		
    a676:	04 4a       	mov	r10,	r4	
    a678:	05 4b       	mov	r11,	r5	
    a67a:	14 53       	inc	r4		
    a67c:	05 63       	adc	r5		
    a67e:	04 3c       	jmp	$+10     	;abs 0xa688
    a680:	0a 44       	mov	r4,	r10	
    a682:	3a e3       	inv	r10		
    a684:	04 4a       	mov	r10,	r4	
    a686:	14 53       	inc	r4		
    a688:	c1 43 1b 00 	mov.b	#0,	27(r1)	;r3 As==00, 0x001b(r1)
    a68c:	69 b3       	bit.b	#2,	r9	;r3 As==10
    a68e:	5e 24       	jz	$+190    	;abs 0xa74c
    a690:	81 44 32 00 	mov	r4,	50(r1)	;0x0032(r1)
    a694:	81 45 3c 00 	mov	r5,	60(r1)	;0x003c(r1)
    a698:	0a 46       	mov	r6,	r10	
    a69a:	08 41       	mov	r1,	r8	
    a69c:	38 50 1a 00 	add	#26,	r8	;#0x001a
    a6a0:	81 47 3e 00 	mov	r7,	62(r1)	;0x003e(r1)
    a6a4:	14 41 22 00 	mov	34(r1),	r4	;0x0022(r1)
    a6a8:	0b 44       	mov	r4,	r11	
    a6aa:	8b 10       	swpb	r11		
    a6ac:	8b 11       	sxt	r11		
    a6ae:	8b 10       	swpb	r11		
    a6b0:	8b 11       	sxt	r11		
    a6b2:	05 4b       	mov	r11,	r5	
    a6b4:	06 4b       	mov	r11,	r6	
    a6b6:	07 4b       	mov	r11,	r7	
    a6b8:	37 15       	pushm	#4,	r7	
    a6ba:	1c 41 3a 00 	mov	58(r1),	r12	;0x003a(r1)
    a6be:	1d 41 44 00 	mov	68(r1),	r13	;0x0044(r1)
    a6c2:	0e 4a       	mov	r10,	r14	
    a6c4:	1f 41 46 00 	mov	70(r1),	r15	;0x0046(r1)
    a6c8:	b0 12 a6 9e 	call	#0x9ea6	
    a6cc:	31 52       	add	#8,	r1	;r2 As==11
    a6ce:	0b 4c       	mov	r12,	r11	
    a6d0:	3c 90 0a 00 	cmp	#10,	r12	;#0x000a
    a6d4:	05 34       	jge	$+12     	;abs 0xa6e0
    a6d6:	7b 50 30 00 	add.b	#48,	r11	;#0x0030
    a6da:	c8 4b 00 00 	mov.b	r11,	0(r8)	;0x0000(r8)
    a6de:	0c 3c       	jmp	$+26     	;abs 0xa6f8
    a6e0:	4b 4c       	mov.b	r12,	r11	
    a6e2:	d1 b3 01 00 	bit.b	#1,	1(r1)	;r3 As==01, 0x0001(r1)
    a6e6:	03 24       	jz	$+8      	;abs 0xa6ee
    a6e8:	79 40 37 00 	mov.b	#55,	r9	;#0x0037
    a6ec:	02 3c       	jmp	$+6      	;abs 0xa6f2
    a6ee:	79 40 57 00 	mov.b	#87,	r9	;#0x0057
    a6f2:	49 5b       	add.b	r11,	r9	
    a6f4:	c8 49 00 00 	mov.b	r9,	0(r8)	;0x0000(r8)
    a6f8:	0b 48       	mov	r8,	r11	
    a6fa:	3b 53       	add	#-1,	r11	;r3 As==11
    a6fc:	37 15       	pushm	#4,	r7	
    a6fe:	1c 41 3a 00 	mov	58(r1),	r12	;0x003a(r1)
    a702:	1d 41 44 00 	mov	68(r1),	r13	;0x0044(r1)
    a706:	0e 4a       	mov	r10,	r14	
    a708:	1f 41 46 00 	mov	70(r1),	r15	;0x0046(r1)
    a70c:	b0 12 8c 9e 	call	#0x9e8c	
    a710:	31 52       	add	#8,	r1	;r2 As==11
    a712:	81 4c 32 00 	mov	r12,	50(r1)	;0x0032(r1)
    a716:	81 4d 3c 00 	mov	r13,	60(r1)	;0x003c(r1)
    a71a:	0a 4e       	mov	r14,	r10	
    a71c:	81 4f 3e 00 	mov	r15,	62(r1)	;0x003e(r1)
    a720:	38 53       	add	#-1,	r8	;r3 As==11
    a722:	0c 93       	tst	r12		
    a724:	bf 23       	jnz	$-128    	;abs 0xa6a4
    a726:	0d 93       	tst	r13		
    a728:	bd 23       	jnz	$-132    	;abs 0xa6a4
    a72a:	0e 93       	tst	r14		
    a72c:	bb 23       	jnz	$-136    	;abs 0xa6a4
    a72e:	0f 93       	tst	r15		
    a730:	b9 23       	jnz	$-140    	;abs 0xa6a4
    a732:	81 44 4c 00 	mov	r4,	76(r1)	;0x004c(r1)
    a736:	81 45 4e 00 	mov	r5,	78(r1)	;0x004e(r1)
    a73a:	81 46 50 00 	mov	r6,	80(r1)	;0x0050(r1)
    a73e:	81 47 52 00 	mov	r7,	82(r1)	;0x0052(r1)
    a742:	04 43       	clr	r4		
    a744:	05 43       	clr	r5		
    a746:	06 43       	clr	r6		
    a748:	07 43       	clr	r7		
    a74a:	78 3c       	jmp	$+242    	;abs 0xa83c
    a74c:	4a 49       	mov.b	r9,	r10	
    a74e:	5a f3       	and.b	#1,	r10	;r3 As==01
    a750:	4b 24       	jz	$+152    	;abs 0xa7e8
    a752:	0a 44       	mov	r4,	r10	
    a754:	08 41       	mov	r1,	r8	
    a756:	38 50 1a 00 	add	#26,	r8	;#0x001a
    a75a:	81 44 32 00 	mov	r4,	50(r1)	;0x0032(r1)
    a75e:	81 45 34 00 	mov	r5,	52(r1)	;0x0034(r1)
    a762:	81 46 36 00 	mov	r6,	54(r1)	;0x0036(r1)
    a766:	81 47 38 00 	mov	r7,	56(r1)	;0x0038(r1)
    a76a:	07 44       	mov	r4,	r7	
    a76c:	06 45       	mov	r5,	r6	
    a76e:	19 41 22 00 	mov	34(r1),	r9	;0x0022(r1)
    a772:	89 10       	swpb	r9		
    a774:	89 11       	sxt	r9		
    a776:	89 10       	swpb	r9		
    a778:	89 11       	sxt	r9		
    a77a:	1c 41 22 00 	mov	34(r1),	r12	;0x0022(r1)
    a77e:	0d 49       	mov	r9,	r13	
    a780:	0e 47       	mov	r7,	r14	
    a782:	0f 46       	mov	r6,	r15	
    a784:	b0 12 30 9e 	call	#0x9e30	
    a788:	0b 4e       	mov	r14,	r11	
    a78a:	3e 90 0a 00 	cmp	#10,	r14	;#0x000a
    a78e:	05 34       	jge	$+12     	;abs 0xa79a
    a790:	7b 50 30 00 	add.b	#48,	r11	;#0x0030
    a794:	c8 4b 00 00 	mov.b	r11,	0(r8)	;0x0000(r8)
    a798:	0c 3c       	jmp	$+26     	;abs 0xa7b2
    a79a:	4b 4e       	mov.b	r14,	r11	
    a79c:	d1 b3 01 00 	bit.b	#1,	1(r1)	;r3 As==01, 0x0001(r1)
    a7a0:	03 24       	jz	$+8      	;abs 0xa7a8
    a7a2:	7a 40 37 00 	mov.b	#55,	r10	;#0x0037
    a7a6:	02 3c       	jmp	$+6      	;abs 0xa7ac
    a7a8:	7a 40 57 00 	mov.b	#87,	r10	;#0x0057
    a7ac:	4a 5b       	add.b	r11,	r10	
    a7ae:	c8 4a 00 00 	mov.b	r10,	0(r8)	;0x0000(r8)
    a7b2:	0b 48       	mov	r8,	r11	
    a7b4:	3b 53       	add	#-1,	r11	;r3 As==11
    a7b6:	1c 41 22 00 	mov	34(r1),	r12	;0x0022(r1)
    a7ba:	0d 49       	mov	r9,	r13	
    a7bc:	0e 47       	mov	r7,	r14	
    a7be:	0f 46       	mov	r6,	r15	
    a7c0:	b0 12 02 9e 	call	#0x9e02	
    a7c4:	07 4e       	mov	r14,	r7	
    a7c6:	06 4f       	mov	r15,	r6	
    a7c8:	38 53       	add	#-1,	r8	;r3 As==11
    a7ca:	0e 93       	tst	r14		
    a7cc:	d0 23       	jnz	$-94     	;abs 0xa76e
    a7ce:	0f 93       	tst	r15		
    a7d0:	ce 23       	jnz	$-98     	;abs 0xa76e
    a7d2:	14 41 32 00 	mov	50(r1),	r4	;0x0032(r1)
    a7d6:	15 41 34 00 	mov	52(r1),	r5	;0x0034(r1)
    a7da:	16 41 36 00 	mov	54(r1),	r6	;0x0036(r1)
    a7de:	17 41 38 00 	mov	56(r1),	r7	;0x0038(r1)
    a7e2:	04 43       	clr	r4		
    a7e4:	05 43       	clr	r5		
    a7e6:	2a 3c       	jmp	$+86     	;abs 0xa83c
    a7e8:	08 44       	mov	r4,	r8	
    a7ea:	09 41       	mov	r1,	r9	
    a7ec:	39 50 1a 00 	add	#26,	r9	;#0x001a
    a7f0:	1e 41 22 00 	mov	34(r1),	r14	;0x0022(r1)
    a7f4:	0f 48       	mov	r8,	r15	
    a7f6:	b0 12 fa 9d 	call	#0x9dfa	
    a7fa:	0d 4f       	mov	r15,	r13	
    a7fc:	3f 90 0a 00 	cmp	#10,	r15	;#0x000a
    a800:	05 34       	jge	$+12     	;abs 0xa80c
    a802:	7d 50 30 00 	add.b	#48,	r13	;#0x0030
    a806:	c9 4d 00 00 	mov.b	r13,	0(r9)	;0x0000(r9)
    a80a:	0c 3c       	jmp	$+26     	;abs 0xa824
    a80c:	4d 4f       	mov.b	r15,	r13	
    a80e:	d1 b3 01 00 	bit.b	#1,	1(r1)	;r3 As==01, 0x0001(r1)
    a812:	03 24       	jz	$+8      	;abs 0xa81a
    a814:	7c 40 37 00 	mov.b	#55,	r12	;#0x0037
    a818:	02 3c       	jmp	$+6      	;abs 0xa81e
    a81a:	7c 40 57 00 	mov.b	#87,	r12	;#0x0057
    a81e:	4c 5d       	add.b	r13,	r12	
    a820:	c9 4c 00 00 	mov.b	r12,	0(r9)	;0x0000(r9)
    a824:	0b 49       	mov	r9,	r11	
    a826:	3b 53       	add	#-1,	r11	;r3 As==11
    a828:	1e 41 22 00 	mov	34(r1),	r14	;0x0022(r1)
    a82c:	0f 48       	mov	r8,	r15	
    a82e:	b0 12 e0 9d 	call	#0x9de0	
    a832:	08 4f       	mov	r15,	r8	
    a834:	39 53       	add	#-1,	r9	;r3 As==11
    a836:	0f 93       	tst	r15		
    a838:	db 23       	jnz	$-72     	;abs 0xa7f0
    a83a:	04 43       	clr	r4		
    a83c:	b1 90 0a 00 	cmp	#10,	34(r1)	;#0x000a, 0x0022(r1)
    a840:	22 00 
    a842:	02 24       	jz	$+6      	;abs 0xa848
    a844:	c1 43 02 00 	mov.b	#0,	2(r1)	;r3 As==00, 0x0002(r1)
    a848:	c1 93 2e 00 	tst.b	46(r1)		;0x002e(r1)
    a84c:	2a 24       	jz	$+86     	;abs 0xa8a2
    a84e:	0f 41       	mov	r1,	r15	
    a850:	3f 50 1c 00 	add	#28,	r15	;#0x001c
    a854:	81 4f 44 00 	mov	r15,	68(r1)	;0x0044(r1)
    a858:	1c 41 1c 00 	mov	28(r1),	r12	;0x001c(r1)
    a85c:	8c 10       	swpb	r12		
    a85e:	8c 11       	sxt	r12		
    a860:	8c 10       	swpb	r12		
    a862:	8c 11       	sxt	r12		
    a864:	81 4c 46 00 	mov	r12,	70(r1)	;0x0046(r1)
    a868:	81 4b 48 00 	mov	r11,	72(r1)	;0x0048(r1)
    a86c:	0c 4b       	mov	r11,	r12	
    a86e:	8c 10       	swpb	r12		
    a870:	8c 11       	sxt	r12		
    a872:	8c 10       	swpb	r12		
    a874:	8c 11       	sxt	r12		
    a876:	81 4c 4a 00 	mov	r12,	74(r1)	;0x004a(r1)
    a87a:	1c 41 44 00 	mov	68(r1),	r12	;0x0044(r1)
    a87e:	1d 41 46 00 	mov	70(r1),	r13	;0x0046(r1)
    a882:	1c 81 48 00 	sub	72(r1),	r12	;0x0048(r1)
    a886:	1d 71 4a 00 	subc	74(r1),	r13	;0x004a(r1)
    a88a:	2c 83       	decd	r12		
    a88c:	1c 91 20 00 	cmp	32(r1),	r12	;0x0020(r1)
    a890:	0e 2c       	jc	$+30     	;abs 0xa8ae
    a892:	e1 d3 01 00 	bis.b	#2,	1(r1)	;r3 As==10, 0x0001(r1)
    a896:	5f 41 20 00 	mov.b	32(r1),	r15	;0x0020(r1)
    a89a:	4f 8c       	sub.b	r12,	r15	
    a89c:	c1 4f 03 00 	mov.b	r15,	3(r1)	;0x0003(r1)
    a8a0:	06 3c       	jmp	$+14     	;abs 0xa8ae
    a8a2:	c1 93 2a 00 	tst.b	42(r1)		;0x002a(r1)
    a8a6:	03 24       	jz	$+8      	;abs 0xa8ae
    a8a8:	91 41 20 00 	mov	32(r1),	48(r1)	;0x0020(r1), 0x0030(r1)
    a8ac:	30 00 
    a8ae:	11 12 04 00 	push	4(r1)		;0x0004(r1)
    a8b2:	11 12 04 00 	push	4(r1)		;0x0004(r1)
    a8b6:	1d 41 34 00 	mov	52(r1),	r13	;0x0034(r1)
    a8ba:	0e 4b       	mov	r11,	r14	
    a8bc:	1e 53       	inc	r14		
    a8be:	1f 41 3e 00 	mov	62(r1),	r15	;0x003e(r1)
    a8c2:	b0 12 0c a1 	call	#0xa10c	
    a8c6:	21 52       	add	#4,	r1	;r2 As==10
    a8c8:	81 5f 2c 00 	add	r15,	44(r1)	;0x002c(r1)
    a8cc:	0d 3c       	jmp	$+28     	;abs 0xa8e8
    a8ce:	7f 4a       	mov.b	@r10+,	r15	
    a8d0:	8f 11       	sxt	r15		
    a8d2:	91 12 3c 00 	call	60(r1)		;0x003c(r1)
    a8d6:	0c 4a       	mov	r10,	r12	
    a8d8:	0c 59       	add	r9,	r12	
    a8da:	1a 91 42 00 	cmp	66(r1),	r10	;0x0042(r1)
    a8de:	f7 2b       	jnc	$-16     	;abs 0xa8ce
    a8e0:	81 4a 40 00 	mov	r10,	64(r1)	;0x0040(r1)
    a8e4:	81 4c 2c 00 	mov	r12,	44(r1)	;0x002c(r1)
    a8e8:	08 43       	clr	r8		
    a8ea:	0f 3c       	jmp	$+32     	;abs 0xa90a
    a8ec:	91 41 20 00 	mov	32(r1),	48(r1)	;0x0020(r1), 0x0030(r1)
    a8f0:	30 00 
    a8f2:	d1 43 2e 00 	mov.b	#1,	46(r1)	;r3 As==01, 0x002e(r1)
    a8f6:	c1 43 2a 00 	mov.b	#0,	42(r1)	;r3 As==00, 0x002a(r1)
    a8fa:	04 3c       	jmp	$+10     	;abs 0xa904
    a8fc:	81 4c 1e 00 	mov	r12,	30(r1)	;0x001e(r1)
    a900:	d1 43 2a 00 	mov.b	#1,	42(r1)	;r3 As==01, 0x002a(r1)
    a904:	81 43 20 00 	mov	#0,	32(r1)	;r3 As==00, 0x0020(r1)
    a908:	18 43       	mov	#1,	r8	;r3 As==01
    a90a:	1c 41 42 00 	mov	66(r1),	r12	;0x0042(r1)
    a90e:	6e 4c       	mov.b	@r12,	r14	
    a910:	4e 93       	tst.b	r14		
    a912:	02 24       	jz	$+6      	;abs 0xa918
    a914:	30 40 d8 a2 	br	#0xa2d8	
    a918:	1f 41 2c 00 	mov	44(r1),	r15	;0x002c(r1)
    a91c:	31 50 54 00 	add	#84,	r1	;#0x0054
    a920:	74 17       	popm	#8,	r11	
    a922:	30 41       	ret			

0000a924 <puts>:
    a924:	0b 12       	push	r11		
    a926:	0b 4f       	mov	r15,	r11	
    a928:	6f 4b       	mov.b	@r11,	r15	
    a92a:	4f 93       	tst.b	r15		
    a92c:	06 24       	jz	$+14     	;abs 0xa93a
    a92e:	1b 53       	inc	r11		
    a930:	8f 11       	sxt	r15		
    a932:	b0 12 82 9c 	call	#0x9c82	
    a936:	0f 93       	tst	r15		
    a938:	f7 37       	jge	$-16     	;abs 0xa928
    a93a:	cb 93 00 00 	tst.b	0(r11)		;0x0000(r11)
    a93e:	05 20       	jnz	$+12     	;abs 0xa94a
    a940:	3f 40 0a 00 	mov	#10,	r15	;#0x000a
    a944:	b0 12 82 9c 	call	#0x9c82	
    a948:	01 3c       	jmp	$+4      	;abs 0xa94c
    a94a:	3f 43       	mov	#-1,	r15	;r3 As==11
    a94c:	3b 41       	pop	r11		
    a94e:	30 41       	ret			

0000a950 <rand_r>:
    a950:	0b 12       	push	r11		
    a952:	0b 4f       	mov	r15,	r11	
    a954:	3c 40 6d 4e 	mov	#20077,	r12	;#0x4e6d
    a958:	3d 40 c6 41 	mov	#16838,	r13	;#0x41c6
    a95c:	2e 4f       	mov	@r15,	r14	
    a95e:	0f 43       	clr	r15		
    a960:	b0 12 a4 a9 	call	#0xa9a4	
    a964:	3e 50 39 30 	add	#12345,	r14	;#0x3039
    a968:	0f 63       	adc	r15		
    a96a:	8b 4e 00 00 	mov	r14,	0(r11)	;0x0000(r11)
    a96e:	0f 4e       	mov	r14,	r15	
    a970:	3b 41       	pop	r11		
    a972:	30 41       	ret			

0000a974 <rand>:
    a974:	3c 40 6d 4e 	mov	#20077,	r12	;#0x4e6d
    a978:	3d 40 c6 41 	mov	#16838,	r13	;#0x41c6
    a97c:	1e 42 48 1c 	mov	&0x1c48,r14	
    a980:	1f 42 4a 1c 	mov	&0x1c4a,r15	
    a984:	b0 12 a4 a9 	call	#0xa9a4	
    a988:	3e 50 39 30 	add	#12345,	r14	;#0x3039
    a98c:	0f 63       	adc	r15		
    a98e:	82 4e 48 1c 	mov	r14,	&0x1c48	
    a992:	82 4f 4a 1c 	mov	r15,	&0x1c4a	
    a996:	0f 4e       	mov	r14,	r15	
    a998:	30 41       	ret			

0000a99a <srand>:
    a99a:	82 4f 48 1c 	mov	r15,	&0x1c48	
    a99e:	82 43 4a 1c 	mov	#0,	&0x1c4a	;r3 As==00
    a9a2:	30 41       	ret			

0000a9a4 <__mulsi3>:
    a9a4:	0b 12       	push	r11		
    a9a6:	0a 12       	push	r10		
    a9a8:	0b 43       	clr	r11		
    a9aa:	0a 43       	clr	r10		
    a9ac:	07 3c       	jmp	$+16     	;abs 0xa9bc
    a9ae:	5d 03       	rrum	#1,	r13	
    a9b0:	0c 10       	rrc	r12		
    a9b2:	02 28       	jnc	$+6      	;abs 0xa9b8
    a9b4:	0a 5e       	add	r14,	r10	
    a9b6:	0b 6f       	addc	r15,	r11	
    a9b8:	0e 5e       	rla	r14		
    a9ba:	0f 6f       	rlc	r15		
    a9bc:	0c 93       	tst	r12		
    a9be:	f7 23       	jnz	$-16     	;abs 0xa9ae
    a9c0:	0d 93       	tst	r13		
    a9c2:	f5 23       	jnz	$-20     	;abs 0xa9ae
    a9c4:	0e 4a       	mov	r10,	r14	
    a9c6:	0f 4b       	mov	r11,	r15	
    a9c8:	3a 41       	pop	r10		
    a9ca:	3b 41       	pop	r11		
    a9cc:	30 41       	ret			

0000a9ce <_unexpected_>:
    a9ce:	00 13       	reti			

Disassembly of section .vectors:

0000ff80 <__ivtbl_64>:
    ff80:	ff ff ff ff ff ff ff ff ff ff ff ff ff ff ff ff     ................
    ff90:	ff ff ff ff ff ff ff ff ff ff ff ff ff ff ff ff     ................
    ffa0:	ff ff ff ff ff ff ff ff ff ff ff ff ff ff ff ff     ................
    ffb0:	ff ff ff ff ff ff ff ff ff ff ff ff ff ff ff ff     ................
    ffc0:	3c 81 3c 81 3c 81 3c 81 3c 81 3c 81 3c 81 3c 81     <.<.<.<.<.<.<.<.
    ffd0:	3c 81 3c 81 3c 81 3c 81 3c 81 3c 81 3c 81 3c 81     <.<.<.<.<.<.<.<.
    ffe0:	3c 81 3c 81 96 9b 32 9b 30 8e 72 95 b6 99 44 99     <.<...2.0.r...D.
    fff0:	3c 81 3c 81 62 9d 3c 81 3c 81 f4 8d 3c 81 00 80     <.<.b.<.<...<...
